	.cpu cortex-m4
	.eabi_attribute 27, 1
	.eabi_attribute 28, 1
	.eabi_attribute 20, 1
	.eabi_attribute 21, 1
	.eabi_attribute 23, 3
	.eabi_attribute 24, 1
	.eabi_attribute 25, 1
	.eabi_attribute 26, 1
	.eabi_attribute 30, 4
	.eabi_attribute 34, 1
	.eabi_attribute 18, 4
	.file	"SEGGER_RTT.c"
	.text
.Ltext0:
	.section	.text._GetAvailWriteSpace,"ax",%progbits
	.align	1
	.syntax unified
	.thumb
	.thumb_func
	.fpu fpv4-sp-d16
	.type	_GetAvailWriteSpace, %function
_GetAvailWriteSpace:
.LVL0:
.LFB199:
	.file 1 "E:\\prj\\kb\\nRF5_SDK_17.0.2_d674dde\\external\\segger_rtt\\SEGGER_RTT.c"
	.loc 1 485 66 view -0
	@ args = 0, pretend = 0, frame = 0
	@ frame_needed = 0, uses_anonymous_args = 0
	@ link register save eliminated.
	.loc 1 486 3 view .LVU1
	.loc 1 487 3 view .LVU2
	.loc 1 488 3 view .LVU3
	.loc 1 493 3 view .LVU4
	.loc 1 493 9 is_stmt 0 view .LVU5
	ldr	r3, [r0, #16]
.LVL1:
	.loc 1 494 3 is_stmt 1 view .LVU6
	.loc 1 494 9 is_stmt 0 view .LVU7
	ldr	r2, [r0, #12]
.LVL2:
	.loc 1 495 3 is_stmt 1 view .LVU8
	.loc 1 495 6 is_stmt 0 view .LVU9
	cmp	r3, r2
	.loc 1 496 5 is_stmt 1 view .LVU10
	.loc 1 496 7 is_stmt 0 view .LVU11
	itt	ls
	ldrls	r0, [r0, #8]
.LVL3:
	.loc 1 496 7 view .LVU12
	addls	r3, r3, r0
.LVL4:
	.loc 1 498 5 is_stmt 1 view .LVU13
	.loc 1 498 7 is_stmt 0 view .LVU14
	subs	r3, r3, #1
	subs	r0, r3, r2
.LVL5:
	.loc 1 500 3 is_stmt 1 view .LVU15
	.loc 1 501 1 is_stmt 0 view .LVU16
	bx	lr
.LFE199:
	.size	_GetAvailWriteSpace, .-_GetAvailWriteSpace
	.section	.text._WriteNoCheck,"ax",%progbits
	.align	1
	.syntax unified
	.thumb
	.thumb_func
	.fpu fpv4-sp-d16
	.type	_WriteNoCheck, %function
_WriteNoCheck:
.LVL6:
.LFB197:
	.loc 1 399 94 is_stmt 1 view -0
	@ args = 0, pretend = 0, frame = 0
	@ frame_needed = 0, uses_anonymous_args = 0
	.loc 1 400 3 view .LVU18
	.loc 1 401 3 view .LVU19
	.loc 1 402 3 view .LVU20
	.loc 1 407 3 view .LVU21
	.loc 1 399 94 is_stmt 0 view .LVU22
	push	{r3, r4, r5, r6, r7, r8, r9, lr}
.LCFI0:
	.loc 1 408 14 view .LVU23
	ldrd	r9, r4, [r0, #8]
	.loc 1 399 94 view .LVU24
	mov	r5, r0
	.loc 1 408 7 view .LVU25
	sub	r8, r9, r4
.LVL7:
	.loc 1 409 3 is_stmt 1 view .LVU26
	.loc 1 421 5 is_stmt 0 view .LVU27
	ldr	r0, [r0, #4]
.LVL8:
	.loc 1 409 6 view .LVU28
	cmp	r8, r2
	.loc 1 421 5 view .LVU29
	add	r0, r0, r4
	.loc 1 399 94 view .LVU30
	mov	r7, r1
	.loc 1 422 26 view .LVU31
	add	r4, r4, r2
	.loc 1 409 6 view .LVU32
	bls	.L5
.LVL9:
.L7:
	.loc 1 444 5 view .LVU33
	bl	memcpy
.LVL10:
	.loc 1 445 5 is_stmt 1 view .LVU34
	.loc 1 445 18 is_stmt 0 view .LVU35
	str	r4, [r5, #12]
	.loc 1 448 1 view .LVU36
	pop	{r3, r4, r5, r6, r7, r8, r9, pc}
.LVL11:
.L5:
	.loc 1 441 5 is_stmt 1 view .LVU37
	.loc 1 442 5 view .LVU38
	mov	r2, r8
.LVL12:
	.loc 1 443 20 is_stmt 0 view .LVU39
	sub	r4, r4, r9
	.loc 1 442 5 view .LVU40
	bl	memcpy
.LVL13:
	.loc 1 443 5 is_stmt 1 view .LVU41
	.loc 1 444 5 view .LVU42
	ldr	r0, [r5, #4]
	mov	r2, r4
	add	r1, r7, r8
	b	.L7
.LFE197:
	.size	_WriteNoCheck, .-_WriteNoCheck
	.section	.text._WriteBlocking,"ax",%progbits
	.align	1
	.syntax unified
	.thumb
	.thumb_func
	.fpu fpv4-sp-d16
	.type	_WriteBlocking, %function
_WriteBlocking:
.LVL14:
.LFB196:
	.loc 1 335 101 view -0
	@ args = 0, pretend = 0, frame = 0
	@ frame_needed = 0, uses_anonymous_args = 0
	.loc 1 336 3 view .LVU44
	.loc 1 337 3 view .LVU45
	.loc 1 338 3 view .LVU46
	.loc 1 339 3 view .LVU47
	.loc 1 346 3 view .LVU48
	.loc 1 347 3 view .LVU49
	.loc 1 335 101 is_stmt 0 view .LVU50
	push	{r3, r4, r5, r6, r7, r8, r9, lr}
.LCFI1:
	.loc 1 347 9 view .LVU51
	ldr	r5, [r0, #12]
.LVL15:
	.loc 1 335 101 view .LVU52
	mov	r6, r0
	mov	r9, r1
	mov	r7, r2
	.loc 1 346 19 view .LVU53
	mov	r8, #0
.LVL16:
.L12:
	.loc 1 348 3 is_stmt 1 view .LVU54
	.loc 1 349 5 view .LVU55
	.loc 1 349 11 is_stmt 0 view .LVU56
	ldr	r4, [r6, #16]
.LVL17:
	.loc 1 350 5 is_stmt 1 view .LVU57
	.loc 1 353 30 is_stmt 0 view .LVU58
	ldr	r3, [r6, #8]
	.loc 1 366 5 view .LVU59
	ldr	r0, [r6, #4]
	.loc 1 350 8 view .LVU60
	cmp	r5, r4
	.loc 1 351 7 is_stmt 1 view .LVU61
	.loc 1 353 7 view .LVU62
	.loc 1 353 23 is_stmt 0 view .LVU63
	it	cs
	addcs	r4, r4, r3
.LVL18:
	.loc 1 353 23 view .LVU64
	subs	r4, r4, #1
	subs	r2, r4, r5
.LVL19:
	.loc 1 355 5 is_stmt 1 view .LVU65
	.loc 1 356 5 view .LVU66
	.loc 1 355 23 is_stmt 0 view .LVU67
	subs	r4, r3, r5
.LVL20:
	.loc 1 356 21 view .LVU68
	cmp	r4, r7
	it	cs
	movcs	r4, r7
.LVL21:
	.loc 1 356 21 view .LVU69
	cmp	r4, r2
	it	cs
	movcs	r4, r2
.LVL22:
	.loc 1 366 5 is_stmt 1 view .LVU70
	mov	r1, r9
	add	r0, r0, r5
	mov	r2, r4
	bl	memcpy
.LVL23:
	.loc 1 367 5 view .LVU71
	.loc 1 372 8 is_stmt 0 view .LVU72
	ldr	r3, [r6, #8]
	.loc 1 370 21 view .LVU73
	add	r5, r5, r4
.LVL24:
	.loc 1 373 13 view .LVU74
	cmp	r3, r5
	it	eq
	moveq	r5, #0
	.loc 1 376 3 view .LVU75
	subs	r7, r7, r4
.LVL25:
	.loc 1 367 21 view .LVU76
	add	r8, r8, r4
.LVL26:
	.loc 1 368 5 is_stmt 1 view .LVU77
	.loc 1 368 21 is_stmt 0 view .LVU78
	add	r9, r9, r4
.LVL27:
	.loc 1 369 5 is_stmt 1 view .LVU79
	.loc 1 370 5 view .LVU80
	.loc 1 372 5 view .LVU81
	.loc 1 375 5 view .LVU82
	.loc 1 375 18 is_stmt 0 view .LVU83
	str	r5, [r6, #12]
	.loc 1 376 11 is_stmt 1 view .LVU84
	.loc 1 376 3 is_stmt 0 view .LVU85
	bne	.L12
	.loc 1 378 3 is_stmt 1 view .LVU86
	.loc 1 379 1 is_stmt 0 view .LVU87
	mov	r0, r8
	pop	{r3, r4, r5, r6, r7, r8, r9, pc}
	.loc 1 379 1 view .LVU88
.LFE196:
	.size	_WriteBlocking, .-_WriteBlocking
	.section	.rodata._DoInit.str1.1,"aMS",%progbits,1
.LC0:
	.ascii	"Terminal\000"
.LC1:
	.ascii	"RTT\000"
.LC2:
	.ascii	"SEGGER\000"
	.section	.text._DoInit,"ax",%progbits
	.align	1
	.syntax unified
	.thumb
	.thumb_func
	.fpu fpv4-sp-d16
	.type	_DoInit, %function
_DoInit:
.LFB195:
	.loc 1 280 27 is_stmt 1 view -0
	@ args = 0, pretend = 0, frame = 0
	@ frame_needed = 0, uses_anonymous_args = 0
	.loc 1 281 3 view .LVU90
	.loc 1 285 3 view .LVU91
.LVL28:
	.loc 1 286 3 view .LVU92
	.loc 1 280 27 is_stmt 0 view .LVU93
	push	{r4, lr}
.LCFI2:
	.loc 1 286 25 view .LVU94
	ldr	r4, .L16
	.loc 1 291 27 view .LVU95
	ldr	r2, .L16+4
	str	r2, [r4, #24]
	.loc 1 286 25 view .LVU96
	movs	r3, #2
	.loc 1 287 25 view .LVU97
	strd	r3, r3, [r4, #16]
	.loc 1 291 3 is_stmt 1 view .LVU98
	.loc 1 292 3 view .LVU99
	.loc 1 292 27 is_stmt 0 view .LVU100
	ldr	r3, .L16+8
	str	r3, [r4, #28]
	.loc 1 293 3 is_stmt 1 view .LVU101
	.loc 1 300 29 is_stmt 0 view .LVU102
	str	r2, [r4, #72]
	.loc 1 293 27 view .LVU103
	mov	r3, #512
	.loc 1 301 29 view .LVU104
	ldr	r2, .L16+12
	.loc 1 311 3 view .LVU105
	ldr	r1, .L16+16
	.loc 1 293 27 view .LVU106
	str	r3, [r4, #32]
	.loc 1 294 3 is_stmt 1 view .LVU107
	.loc 1 301 29 is_stmt 0 view .LVU108
	str	r2, [r4, #76]
	.loc 1 294 27 view .LVU109
	movs	r3, #0
	.loc 1 302 29 view .LVU110
	movs	r2, #16
	.loc 1 311 3 view .LVU111
	adds	r0, r4, #7
	.loc 1 294 27 view .LVU112
	str	r3, [r4, #40]
	.loc 1 295 3 is_stmt 1 view .LVU113
	.loc 1 295 27 is_stmt 0 view .LVU114
	str	r3, [r4, #36]
	.loc 1 296 3 is_stmt 1 view .LVU115
	.loc 1 296 27 is_stmt 0 view .LVU116
	str	r3, [r4, #44]
	.loc 1 300 3 is_stmt 1 view .LVU117
	.loc 1 301 3 view .LVU118
	.loc 1 302 3 view .LVU119
	.loc 1 303 29 is_stmt 0 view .LVU120
	str	r3, [r4, #88]
	.loc 1 304 29 view .LVU121
	str	r3, [r4, #84]
	.loc 1 305 29 view .LVU122
	str	r3, [r4, #92]
	.loc 1 302 29 view .LVU123
	str	r2, [r4, #80]
	.loc 1 303 3 is_stmt 1 view .LVU124
	.loc 1 304 3 view .LVU125
	.loc 1 305 3 view .LVU126
	.loc 1 311 3 view .LVU127
	bl	strcpy
.LVL29:
	.loc 1 312 3 view .LVU128
	ldr	r1, .L16+20
	mov	r0, r4
	bl	strcpy
.LVL30:
	.loc 1 313 3 view .LVU129
	.loc 1 313 14 is_stmt 0 view .LVU130
	movs	r3, #32
	strb	r3, [r4, #6]
	.loc 1 314 1 view .LVU131
	pop	{r4, pc}
.L17:
	.align	2
.L16:
	.word	.LANCHOR0
	.word	.LC0
	.word	.LANCHOR1
	.word	.LANCHOR2
	.word	.LC1
	.word	.LC2
.LFE195:
	.size	_DoInit, .-_DoInit
	.section	.text._PostTerminalSwitch.constprop.0,"ax",%progbits
	.align	1
	.syntax unified
	.thumb
	.thumb_func
	.fpu fpv4-sp-d16
	.type	_PostTerminalSwitch.constprop.0, %function
_PostTerminalSwitch.constprop.0:
.LVL31:
.LFB225:
	.loc 1 463 13 is_stmt 1 view -0
	@ args = 0, pretend = 0, frame = 8
	@ frame_needed = 0, uses_anonymous_args = 0
	.loc 1 464 3 view .LVU133
	.loc 1 466 3 view .LVU134
	.loc 1 463 13 is_stmt 0 view .LVU135
	push	{r0, r1, r2, lr}
.LCFI3:
	.loc 1 466 9 view .LVU136
	movs	r3, #255
	strb	r3, [sp, #4]
	.loc 1 467 3 is_stmt 1 view .LVU137
	.loc 1 467 23 is_stmt 0 view .LVU138
	ldr	r3, .L19
	.loc 1 468 3 view .LVU139
	movs	r2, #2
	.loc 1 467 9 view .LVU140
	ldrb	r3, [r3, r0]	@ zero_extendqisi2
	.loc 1 468 3 view .LVU141
	ldr	r0, .L19+4
.LVL32:
	.loc 1 467 9 view .LVU142
	strb	r3, [sp, #5]
	.loc 1 468 3 is_stmt 1 view .LVU143
	add	r1, sp, #4
	bl	_WriteBlocking
.LVL33:
	.loc 1 469 1 is_stmt 0 view .LVU144
	add	sp, sp, #12
.LCFI4:
	@ sp needed
	ldr	pc, [sp], #4
.L20:
	.align	2
.L19:
	.word	.LANCHOR3
	.word	.LANCHOR0+24
.LFE225:
	.size	_PostTerminalSwitch.constprop.0, .-_PostTerminalSwitch.constprop.0
	.section	.text.SEGGER_RTT_ReadNoLock,"ax",%progbits
	.align	1
	.global	SEGGER_RTT_ReadNoLock
	.syntax unified
	.thumb
	.thumb_func
	.fpu fpv4-sp-d16
	.type	SEGGER_RTT_ReadNoLock, %function
SEGGER_RTT_ReadNoLock:
.LVL34:
.LFB200:
	.loc 1 526 88 is_stmt 1 view -0
	@ args = 0, pretend = 0, frame = 0
	@ frame_needed = 0, uses_anonymous_args = 0
	.loc 1 526 88 is_stmt 0 view .LVU146
	push	{r3, r4, r5, r6, r7, r8, r9, r10, fp, lr}
.LCFI5:
	.loc 1 537 3 view .LVU147
	ldr	r8, .L33
	ldrb	r3, [r8]	@ zero_extendqisi2
	.loc 1 526 88 view .LVU148
	mov	r10, r0
	mov	r9, r1
	.loc 1 527 3 is_stmt 1 view .LVU149
	.loc 1 528 3 view .LVU150
	.loc 1 529 3 view .LVU151
	.loc 1 530 3 view .LVU152
	.loc 1 531 3 view .LVU153
	.loc 1 532 3 view .LVU154
	.loc 1 537 3 view .LVU155
	.loc 1 537 3 view .LVU156
	.loc 1 526 88 is_stmt 0 view .LVU157
	mov	r6, r2
	.loc 1 537 3 view .LVU158
	cbnz	r3, .L22
	.loc 1 537 3 is_stmt 1 discriminator 1 view .LVU159
	bl	_DoInit
.LVL35:
.L22:
	.loc 1 537 3 discriminator 3 view .LVU160
	.loc 1 538 3 discriminator 3 view .LVU161
	.loc 1 539 3 discriminator 3 view .LVU162
	.loc 1 540 3 discriminator 3 view .LVU163
	.loc 1 540 9 is_stmt 0 discriminator 3 view .LVU164
	movs	r7, #24
	mla	r7, r7, r10, r8
	ldr	r5, [r7, #88]
.LVL36:
	.loc 1 541 3 is_stmt 1 discriminator 3 view .LVU165
	.loc 1 541 9 is_stmt 0 discriminator 3 view .LVU166
	ldr	fp, [r7, #84]
.LVL37:
	.loc 1 542 3 is_stmt 1 discriminator 3 view .LVU167
	.loc 1 546 3 discriminator 3 view .LVU168
	.loc 1 546 6 is_stmt 0 discriminator 3 view .LVU169
	cmp	r5, fp
	bls	.L26
	.loc 1 547 5 is_stmt 1 view .LVU170
	.loc 1 547 17 is_stmt 0 view .LVU171
	ldr	r4, [r7, #80]
	.loc 1 558 5 view .LVU172
	ldr	r1, [r7, #76]
	.loc 1 547 17 view .LVU173
	subs	r4, r4, r5
.LVL38:
	.loc 1 548 5 is_stmt 1 view .LVU174
	.loc 1 548 17 is_stmt 0 view .LVU175
	cmp	r4, r6
	it	cs
	movcs	r4, r6
.LVL39:
	.loc 1 558 5 is_stmt 1 view .LVU176
	add	r1, r1, r5
	mov	r0, r9
	mov	r2, r4
	bl	memcpy
.LVL40:
	.loc 1 559 5 view .LVU177
	.loc 1 560 5 view .LVU178
	.loc 1 567 8 is_stmt 0 view .LVU179
	ldr	r3, [r7, #80]
	.loc 1 562 18 view .LVU180
	add	r5, r5, r4
.LVL41:
	.loc 1 560 18 view .LVU181
	add	r9, r9, r4
.LVL42:
	.loc 1 561 5 is_stmt 1 view .LVU182
	.loc 1 561 18 is_stmt 0 view .LVU183
	subs	r6, r6, r4
.LVL43:
	.loc 1 562 5 is_stmt 1 view .LVU184
	.loc 1 567 5 view .LVU185
	.loc 1 568 13 is_stmt 0 view .LVU186
	cmp	r3, r5
	it	eq
	moveq	r5, #0
.LVL44:
.L23:
	.loc 1 574 3 is_stmt 1 view .LVU187
	.loc 1 574 15 is_stmt 0 view .LVU188
	sub	r2, fp, r5
.LVL45:
	.loc 1 575 3 is_stmt 1 view .LVU189
	.loc 1 575 15 is_stmt 0 view .LVU190
	cmp	r6, r2
	it	cs
	movcs	r6, r2
.LVL46:
	.loc 1 576 3 is_stmt 1 view .LVU191
	.loc 1 576 6 is_stmt 0 view .LVU192
	cbz	r6, .L24
	.loc 1 586 5 is_stmt 1 view .LVU193
	movs	r3, #24
	mla	r3, r3, r10, r8
	mov	r2, r6
	ldr	r1, [r3, #76]
	mov	r0, r9
	add	r1, r1, r5
	bl	memcpy
.LVL47:
	.loc 1 587 5 view .LVU194
	.loc 1 587 18 is_stmt 0 view .LVU195
	add	r4, r4, r6
.LVL48:
	.loc 1 588 5 is_stmt 1 view .LVU196
	.loc 1 589 5 view .LVU197
	.loc 1 590 5 view .LVU198
	.loc 1 590 18 is_stmt 0 view .LVU199
	add	r5, r5, r6
.LVL49:
.L24:
	.loc 1 593 3 is_stmt 1 view .LVU200
	.loc 1 593 6 is_stmt 0 view .LVU201
	cbz	r4, .L21
	.loc 1 594 5 is_stmt 1 view .LVU202
	.loc 1 594 18 is_stmt 0 view .LVU203
	movs	r0, #24
	mla	r8, r0, r10, r8
	str	r5, [r8, #88]
.LVL50:
	.loc 1 597 3 is_stmt 1 view .LVU204
.L21:
	.loc 1 598 1 is_stmt 0 view .LVU205
	mov	r0, r4
	pop	{r3, r4, r5, r6, r7, r8, r9, r10, fp, pc}
.LVL51:
.L26:
	.loc 1 542 16 view .LVU206
	movs	r4, #0
	b	.L23
.L34:
	.align	2
.L33:
	.word	.LANCHOR0
.LFE200:
	.size	SEGGER_RTT_ReadNoLock, .-SEGGER_RTT_ReadNoLock
	.section	.text.SEGGER_RTT_Read,"ax",%progbits
	.align	1
	.global	SEGGER_RTT_Read
	.syntax unified
	.thumb
	.thumb_func
	.fpu fpv4-sp-d16
	.type	SEGGER_RTT_Read, %function
SEGGER_RTT_Read:
.LVL52:
.LFB201:
	.loc 1 616 84 is_stmt 1 view -0
	@ args = 0, pretend = 0, frame = 16
	@ frame_needed = 0, uses_anonymous_args = 0
	.loc 1 617 3 view .LVU208
.LBB2:
	.loc 1 619 3 view .LVU209
.LBE2:
	.loc 1 616 84 is_stmt 0 view .LVU210
	push	{r0, r1, r2, r3, r4, lr}
.LCFI6:
.LBB3:
	.loc 1 619 3 view .LVU211
	movs	r3, #0
.LBE3:
	.loc 1 616 84 view .LVU212
	mov	r4, r0
.LBB4:
	.loc 1 619 3 view .LVU213
	add	r0, sp, #15
.LVL53:
	.loc 1 619 3 view .LVU214
	strb	r3, [sp, #15]
	.loc 1 619 3 is_stmt 1 view .LVU215
.LBE4:
	.loc 1 616 84 is_stmt 0 view .LVU216
	strd	r2, r1, [sp]
.LBB5:
	.loc 1 619 3 view .LVU217
	bl	app_util_critical_region_enter
.LVL54:
	.loc 1 619 20 is_stmt 1 view .LVU218
	.loc 1 623 3 view .LVU219
	.loc 1 623 18 is_stmt 0 view .LVU220
	ldrd	r2, r1, [sp]
	mov	r0, r4
	bl	SEGGER_RTT_ReadNoLock
.LVL55:
	mov	r4, r0
.LVL56:
	.loc 1 627 3 is_stmt 1 view .LVU221
	ldrb	r0, [sp, #15]	@ zero_extendqisi2
.LVL57:
	.loc 1 627 3 is_stmt 0 view .LVU222
	bl	app_util_critical_region_exit
.LVL58:
.LBE5:
	.loc 1 627 22 is_stmt 1 view .LVU223
	.loc 1 629 3 view .LVU224
	.loc 1 630 1 is_stmt 0 view .LVU225
	mov	r0, r4
	add	sp, sp, #16
.LCFI7:
.LVL59:
	.loc 1 630 1 view .LVU226
	@ sp needed
	pop	{r4, pc}
	.loc 1 630 1 view .LVU227
.LFE201:
	.size	SEGGER_RTT_Read, .-SEGGER_RTT_Read
	.section	.text.SEGGER_RTT_WriteWithOverwriteNoLock,"ax",%progbits
	.align	1
	.global	SEGGER_RTT_WriteWithOverwriteNoLock
	.syntax unified
	.thumb
	.thumb_func
	.fpu fpv4-sp-d16
	.type	SEGGER_RTT_WriteWithOverwriteNoLock, %function
SEGGER_RTT_WriteWithOverwriteNoLock:
.LVL60:
.LFB202:
	.loc 1 655 104 is_stmt 1 view -0
	@ args = 0, pretend = 0, frame = 8
	@ frame_needed = 0, uses_anonymous_args = 0
	.loc 1 656 3 view .LVU229
	.loc 1 657 3 view .LVU230
	.loc 1 658 3 view .LVU231
	.loc 1 663 3 view .LVU232
	.loc 1 655 104 is_stmt 0 view .LVU233
	push	{r0, r1, r2, r4, r5, r6, r7, r8, r9, r10, fp, lr}
.LCFI8:
	.loc 1 671 12 view .LVU234
	ldr	r6, .L49
	.loc 1 655 104 view .LVU235
	mov	r4, r2
	.loc 1 671 12 view .LVU236
	movs	r2, #24
.LVL61:
	.loc 1 671 12 view .LVU237
	mla	r2, r2, r0, r6
	.loc 1 655 104 view .LVU238
	mov	r7, r1
.LVL62:
	.loc 1 667 3 is_stmt 1 view .LVU239
	.loc 1 671 3 view .LVU240
	.loc 1 671 28 is_stmt 0 view .LVU241
	ldr	r3, [r2, #40]
	.loc 1 671 12 view .LVU242
	ldr	r1, [r2, #36]
.LVL63:
	.loc 1 671 6 view .LVU243
	cmp	r1, r3
	.loc 1 655 104 view .LVU244
	mov	r5, r0
	.loc 1 671 6 view .LVU245
	bne	.L37
	.loc 1 672 5 is_stmt 1 view .LVU246
	.loc 1 672 11 is_stmt 0 view .LVU247
	ldr	r3, [r2, #32]
	subs	r3, r3, #1
.LVL64:
.L38:
	.loc 1 678 3 is_stmt 1 view .LVU248
	.loc 1 678 6 is_stmt 0 view .LVU249
	cmp	r3, r4
	bcc	.L40
.LVL65:
.L44:
	.loc 1 687 3 is_stmt 1 view .LVU250
	.loc 1 687 16 is_stmt 0 view .LVU251
	mov	r10, #24
	mla	r3, r10, r5, r6
	.loc 1 687 9 view .LVU252
	ldr	r2, [r3, #32]
	.loc 1 701 7 view .LVU253
	mla	r3, r5, r10, r10
	.loc 1 687 9 view .LVU254
	sub	r8, r2, r1
.LVL66:
.L41:
	.loc 1 688 3 is_stmt 1 view .LVU255
	.loc 1 689 5 view .LVU256
	.loc 1 701 7 is_stmt 0 view .LVU257
	adds	r2, r6, r3
	mla	r9, r10, r5, r6
	ldr	r2, [r2, #4]
	ldr	r0, [r9, #36]
	.loc 1 689 8 view .LVU258
	cmp	r4, r8
	.loc 1 701 7 view .LVU259
	add	r0, r0, r2
	.loc 1 689 8 view .LVU260
	bcs	.L45
	.loc 1 701 7 is_stmt 1 view .LVU261
	mov	r2, r4
	mov	r1, r7
	bl	memcpy
.LVL67:
	.loc 1 702 7 view .LVU262
	.loc 1 702 20 is_stmt 0 view .LVU263
	ldr	r2, [r9, #36]
	add	r2, r2, r4
	str	r2, [r9, #36]
	.loc 1 704 7 is_stmt 1 view .LVU264
.L36:
	.loc 1 725 1 is_stmt 0 view .LVU265
	add	sp, sp, #12
.LCFI9:
	@ sp needed
	pop	{r4, r5, r6, r7, r8, r9, r10, fp, pc}
.LVL68:
.L37:
.LCFI10:
	.loc 1 673 10 is_stmt 1 view .LVU266
	.loc 1 673 35 is_stmt 0 view .LVU267
	ldr	r3, [r2, #40]
	.loc 1 673 13 view .LVU268
	cmp	r1, r3
	.loc 1 674 18 view .LVU269
	ldr	r3, [r2, #40]
	.loc 1 674 5 is_stmt 1 view .LVU270
	.loc 1 676 5 view .LVU271
	.loc 1 676 11 is_stmt 0 view .LVU272
	itt	cs
	ldrcs	r2, [r2, #32]
	addcs	r3, r3, r2
	subs	r3, r3, #1
	subs	r3, r3, r1
.LVL69:
	.loc 1 676 11 view .LVU273
	b	.L38
.L40:
	.loc 1 679 5 is_stmt 1 view .LVU274
	.loc 1 679 18 is_stmt 0 view .LVU275
	movs	r2, #24
	mla	r2, r2, r5, r6
	ldr	r0, [r2, #40]
.LVL70:
	.loc 1 679 18 view .LVU276
	add	r0, r0, r4
	subs	r3, r0, r3
.LVL71:
	.loc 1 680 33 view .LVU277
	ldr	r0, [r2, #32]
	.loc 1 679 18 view .LVU278
	str	r3, [r2, #40]
	.loc 1 680 5 is_stmt 1 view .LVU279
.L42:
	.loc 1 680 11 view .LVU280
	.loc 1 680 17 is_stmt 0 view .LVU281
	ldr	r3, [r2, #40]
	.loc 1 680 11 view .LVU282
	cmp	r3, r0
	bcc	.L44
	.loc 1 681 7 is_stmt 1 view .LVU283
	.loc 1 681 20 is_stmt 0 view .LVU284
	ldr	r3, [r2, #40]
	subs	r3, r3, r0
	str	r3, [r2, #40]
	b	.L42
.LVL72:
.L45:
	.loc 1 717 7 view .LVU285
	mov	r2, r8
	mov	r1, r7
	str	r3, [sp, #4]
	.loc 1 717 7 is_stmt 1 view .LVU286
	bl	memcpy
.LVL73:
	.loc 1 718 7 view .LVU287
	.loc 1 719 20 is_stmt 0 view .LVU288
	movs	r2, #0
	str	r2, [r9, #36]
	.loc 1 722 13 view .LVU289
	ldr	r2, [r9, #32]
	.loc 1 724 3 view .LVU290
	ldr	r3, [sp, #4]
	.loc 1 720 16 view .LVU291
	sub	r4, r4, r8
.LVL74:
	.loc 1 718 13 view .LVU292
	add	r7, r7, r8
.LVL75:
	.loc 1 719 7 is_stmt 1 view .LVU293
	.loc 1 720 7 view .LVU294
	.loc 1 722 7 view .LVU295
	.loc 1 722 13 is_stmt 0 view .LVU296
	add	r8, r2, #-1
.LVL76:
	.loc 1 724 11 is_stmt 1 view .LVU297
	.loc 1 724 3 is_stmt 0 view .LVU298
	cmp	r4, #0
	bne	.L41
	b	.L36
.L50:
	.align	2
.L49:
	.word	.LANCHOR0
.LFE202:
	.size	SEGGER_RTT_WriteWithOverwriteNoLock, .-SEGGER_RTT_WriteWithOverwriteNoLock
	.section	.text.SEGGER_RTT_WriteSkipNoLock,"ax",%progbits
	.align	1
	.global	SEGGER_RTT_WriteSkipNoLock
	.syntax unified
	.thumb
	.thumb_func
	.fpu fpv4-sp-d16
	.type	SEGGER_RTT_WriteSkipNoLock, %function
SEGGER_RTT_WriteSkipNoLock:
.LVL77:
.LFB203:
	.loc 1 751 99 is_stmt 1 view -0
	@ args = 0, pretend = 0, frame = 0
	@ frame_needed = 0, uses_anonymous_args = 0
	.loc 1 752 3 view .LVU300
	.loc 1 753 3 view .LVU301
	.loc 1 754 3 view .LVU302
	.loc 1 755 3 view .LVU303
	.loc 1 756 3 view .LVU304
	.loc 1 757 3 view .LVU305
	.loc 1 762 3 view .LVU306
	.loc 1 766 3 view .LVU307
	.loc 1 767 3 view .LVU308
	.loc 1 767 9 is_stmt 0 view .LVU309
	ldr	ip, .L61
	movs	r3, #24
	.loc 1 751 99 view .LVU310
	push	{r4, r5, r6, r7, r8, r9, r10, lr}
.LCFI11:
	.loc 1 767 9 view .LVU311
	mla	r7, r3, r0, ip
	.loc 1 751 99 view .LVU312
	mov	r9, r1
	.loc 1 767 9 view .LVU313
	ldr	r6, [r7, #40]
.LVL78:
	.loc 1 768 3 is_stmt 1 view .LVU314
	.loc 1 768 9 is_stmt 0 view .LVU315
	ldr	r4, [r7, #36]
.LVL79:
	.loc 1 782 3 is_stmt 1 view .LVU316
	.loc 1 782 6 is_stmt 0 view .LVU317
	cmp	r6, r4
	.loc 1 751 99 view .LVU318
	mov	r5, r2
	.loc 1 782 6 view .LVU319
	bhi	.L52
	.loc 1 786 5 is_stmt 1 view .LVU320
	.loc 1 786 18 is_stmt 0 view .LVU321
	ldr	r10, [r7, #32]
	.loc 1 786 38 view .LVU322
	sub	r8, r10, r4
	.loc 1 786 11 view .LVU323
	add	lr, r8, #-1
.LVL80:
	.loc 1 787 5 is_stmt 1 view .LVU324
	.loc 1 787 8 is_stmt 0 view .LVU325
	cmp	r2, lr
	bhi	.L53
	.loc 1 796 7 is_stmt 1 view .LVU326
	mla	r3, r0, r3, r3
	add	ip, ip, r3
	ldr	r0, [ip, #4]
.LVL81:
.L58:
	.loc 1 860 7 is_stmt 0 view .LVU327
	add	r0, r0, r4
	bl	memcpy
.LVL82:
	.loc 1 861 7 is_stmt 1 view .LVU328
	.loc 1 861 28 is_stmt 0 view .LVU329
	add	r4, r4, r5
.LVL83:
	.loc 1 861 28 view .LVU330
	b	.L59
.LVL84:
.L53:
	.loc 1 804 5 is_stmt 1 view .LVU331
	.loc 1 808 5 view .LVU332
	.loc 1 804 11 is_stmt 0 view .LVU333
	add	r6, r6, lr
.LVL85:
	.loc 1 808 8 view .LVU334
	cmp	r2, r6
	bhi	.L57
	.loc 1 812 7 is_stmt 1 view .LVU335
.LVL86:
	.loc 1 813 7 view .LVU336
	.loc 1 796 7 is_stmt 0 view .LVU337
	mla	r3, r0, r3, r3
	add	r6, ip, r3
.LVL87:
	.loc 1 813 10 view .LVU338
	cmp	r8, r2
	.loc 1 796 7 view .LVU339
	ldr	r0, [r6, #4]
.LVL88:
	.loc 1 796 7 view .LVU340
	add	r0, r0, r4
	.loc 1 797 28 view .LVU341
	add	r4, r4, r2
.LVL89:
	.loc 1 813 10 view .LVU342
	bls	.L55
.LVL90:
.L60:
	.loc 1 843 9 view .LVU343
	bl	memcpy
.LVL91:
	.loc 1 844 9 is_stmt 1 view .LVU344
.L59:
	.loc 1 861 20 is_stmt 0 view .LVU345
	str	r4, [r7, #36]
	.loc 1 863 7 is_stmt 1 view .LVU346
	.loc 1 863 14 is_stmt 0 view .LVU347
	movs	r0, #1
.L51:
	.loc 1 870 1 view .LVU348
	pop	{r4, r5, r6, r7, r8, r9, r10, pc}
.LVL92:
.L55:
	.loc 1 842 9 is_stmt 1 view .LVU349
	mov	r2, r8
.LVL93:
	.loc 1 843 9 is_stmt 0 view .LVU350
	sub	r4, r4, r10
	.loc 1 842 9 view .LVU351
	bl	memcpy
.LVL94:
	.loc 1 843 9 is_stmt 1 view .LVU352
	ldr	r0, [r6, #4]
	mov	r2, r4
	add	r1, r9, r8
	b	.L60
.LVL95:
.L52:
	.loc 1 850 5 view .LVU353
	.loc 1 851 5 view .LVU354
	.loc 1 850 11 is_stmt 0 view .LVU355
	subs	r6, r6, #1
.LVL96:
	.loc 1 850 11 view .LVU356
	subs	r6, r6, r4
.LVL97:
	.loc 1 851 8 view .LVU357
	cmp	r6, r2
	bcc	.L57
	.loc 1 860 7 is_stmt 1 view .LVU358
	mla	r3, r0, r3, r3
	add	r3, r3, ip
	ldr	r0, [r3, #4]
.LVL98:
	.loc 1 860 7 is_stmt 0 view .LVU359
	b	.L58
.LVL99:
.L57:
	.loc 1 869 10 view .LVU360
	movs	r0, #0
.LVL100:
	.loc 1 869 10 view .LVU361
	b	.L51
.L62:
	.align	2
.L61:
	.word	.LANCHOR0
.LFE203:
	.size	SEGGER_RTT_WriteSkipNoLock, .-SEGGER_RTT_WriteSkipNoLock
	.section	.text.SEGGER_RTT_WriteNoLock,"ax",%progbits
	.align	1
	.global	SEGGER_RTT_WriteNoLock
	.syntax unified
	.thumb
	.thumb_func
	.fpu fpv4-sp-d16
	.type	SEGGER_RTT_WriteNoLock, %function
SEGGER_RTT_WriteNoLock:
.LVL101:
.LFB204:
	.loc 1 895 95 is_stmt 1 view -0
	@ args = 0, pretend = 0, frame = 0
	@ frame_needed = 0, uses_anonymous_args = 0
	.loc 1 896 3 view .LVU363
	.loc 1 897 3 view .LVU364
	.loc 1 898 3 view .LVU365
	.loc 1 899 3 view .LVU366
	.loc 1 901 3 view .LVU367
	.loc 1 905 3 view .LVU368
	.loc 1 895 95 is_stmt 0 view .LVU369
	push	{r4, r5, r6, lr}
.LCFI12:
	.loc 1 905 9 view .LVU370
	ldr	r3, .L68
	movs	r4, #24
	mla	r5, r0, r4, r4
	add	r5, r5, r3
.LVL102:
	.loc 1 909 3 is_stmt 1 view .LVU371
	.loc 1 909 16 is_stmt 0 view .LVU372
	mla	r3, r4, r0, r3
	.loc 1 895 95 view .LVU373
	mov	r6, r2
	.loc 1 909 16 view .LVU374
	ldr	r4, [r3, #44]
	.loc 1 909 3 view .LVU375
	cmp	r4, #1
	beq	.L64
	cmp	r4, #2
	beq	.L65
	cbnz	r4, .L67
	.loc 1 915 5 is_stmt 1 view .LVU376
	.loc 1 915 13 is_stmt 0 view .LVU377
	mov	r0, r5
.LVL103:
	.loc 1 915 13 view .LVU378
	bl	_GetAvailWriteSpace
.LVL104:
	.loc 1 916 5 is_stmt 1 view .LVU379
	.loc 1 916 8 is_stmt 0 view .LVU380
	cmp	r6, r0
	bhi	.L63
	.loc 1 919 7 is_stmt 1 view .LVU381
.LVL105:
	.loc 1 920 7 view .LVU382
	mov	r2, r6
	mov	r0, r5
.LVL106:
	.loc 1 920 7 is_stmt 0 view .LVU383
	bl	_WriteNoCheck
.LVL107:
	.loc 1 920 7 view .LVU384
	mov	r4, r6
.LVL108:
.L63:
	.loc 1 945 1 view .LVU385
	mov	r0, r4
	pop	{r4, r5, r6, pc}
.LVL109:
.L64:
	.loc 1 927 5 is_stmt 1 view .LVU386
	.loc 1 927 13 is_stmt 0 view .LVU387
	mov	r0, r5
.LVL110:
	.loc 1 927 13 view .LVU388
	bl	_GetAvailWriteSpace
.LVL111:
	.loc 1 928 5 is_stmt 1 view .LVU389
	.loc 1 928 12 is_stmt 0 view .LVU390
	cmp	r6, r0
	mov	r4, r6
	it	cs
	movcs	r4, r0
.LVL112:
	.loc 1 929 5 is_stmt 1 view .LVU391
	mov	r2, r4
	mov	r0, r5
.LVL113:
	.loc 1 929 5 is_stmt 0 view .LVU392
	bl	_WriteNoCheck
.LVL114:
	.loc 1 930 5 is_stmt 1 view .LVU393
	b	.L63
.LVL115:
.L65:
	.loc 1 935 5 view .LVU394
	.loc 1 935 14 is_stmt 0 view .LVU395
	mov	r0, r5
.LVL116:
	.loc 1 945 1 view .LVU396
	pop	{r4, r5, r6, lr}
.LCFI13:
.LVL117:
	.loc 1 935 14 view .LVU397
	b	_WriteBlocking
.LVL118:
.L67:
.LCFI14:
	.loc 1 909 3 view .LVU398
	movs	r4, #0
.LVL119:
	.loc 1 944 3 is_stmt 1 view .LVU399
	.loc 1 944 10 is_stmt 0 view .LVU400
	b	.L63
.L69:
	.align	2
.L68:
	.word	.LANCHOR0
.LFE204:
	.size	SEGGER_RTT_WriteNoLock, .-SEGGER_RTT_WriteNoLock
	.section	.text.SEGGER_RTT_Write,"ax",%progbits
	.align	1
	.global	SEGGER_RTT_Write
	.syntax unified
	.thumb
	.thumb_func
	.fpu fpv4-sp-d16
	.type	SEGGER_RTT_Write, %function
SEGGER_RTT_Write:
.LVL120:
.LFB205:
	.loc 1 966 89 is_stmt 1 view -0
	@ args = 0, pretend = 0, frame = 8
	@ frame_needed = 0, uses_anonymous_args = 0
	.loc 1 967 3 view .LVU402
	.loc 1 969 3 view .LVU403
	.loc 1 969 3 view .LVU404
	.loc 1 966 89 is_stmt 0 view .LVU405
	push	{r0, r1, r4, r5, r6, lr}
.LCFI15:
	.loc 1 969 3 view .LVU406
	ldr	r3, .L72
	ldrb	r3, [r3]	@ zero_extendqisi2
	.loc 1 966 89 view .LVU407
	mov	r4, r0
	mov	r5, r1
	mov	r6, r2
	.loc 1 969 3 view .LVU408
	cbnz	r3, .L71
	.loc 1 969 3 is_stmt 1 discriminator 1 view .LVU409
	bl	_DoInit
.LVL121:
.L71:
	.loc 1 969 3 discriminator 3 view .LVU410
.LBB6:
	.loc 1 970 3 discriminator 3 view .LVU411
	movs	r3, #0
	add	r0, sp, #7
	strb	r3, [sp, #7]
	.loc 1 970 3 discriminator 3 view .LVU412
	bl	app_util_critical_region_enter
.LVL122:
	.loc 1 970 20 discriminator 3 view .LVU413
	.loc 1 974 3 discriminator 3 view .LVU414
	.loc 1 974 12 is_stmt 0 discriminator 3 view .LVU415
	mov	r2, r6
	mov	r1, r5
	mov	r0, r4
	bl	SEGGER_RTT_WriteNoLock
.LVL123:
	mov	r4, r0
.LVL124:
	.loc 1 978 3 is_stmt 1 discriminator 3 view .LVU416
	ldrb	r0, [sp, #7]	@ zero_extendqisi2
.LVL125:
	.loc 1 978 3 is_stmt 0 discriminator 3 view .LVU417
	bl	app_util_critical_region_exit
.LVL126:
.LBE6:
	.loc 1 978 22 is_stmt 1 discriminator 3 view .LVU418
	.loc 1 980 3 discriminator 3 view .LVU419
	.loc 1 981 1 is_stmt 0 discriminator 3 view .LVU420
	mov	r0, r4
	add	sp, sp, #8
.LCFI16:
	@ sp needed
	pop	{r4, r5, r6, pc}
.LVL127:
.L73:
	.loc 1 981 1 discriminator 3 view .LVU421
	.align	2
.L72:
	.word	.LANCHOR0
.LFE205:
	.size	SEGGER_RTT_Write, .-SEGGER_RTT_Write
	.section	.text.SEGGER_RTT_WriteString,"ax",%progbits
	.align	1
	.global	SEGGER_RTT_WriteString
	.syntax unified
	.thumb
	.thumb_func
	.fpu fpv4-sp-d16
	.type	SEGGER_RTT_WriteString, %function
SEGGER_RTT_WriteString:
.LVL128:
.LFB206:
	.loc 1 1003 70 is_stmt 1 view -0
	@ args = 0, pretend = 0, frame = 8
	@ frame_needed = 0, uses_anonymous_args = 0
	.loc 1 1004 3 view .LVU423
	.loc 1 1006 3 view .LVU424
	.loc 1 1003 70 is_stmt 0 view .LVU425
	push	{r0, r1, r4, lr}
.LCFI17:
	.loc 1 1003 70 view .LVU426
	mov	r4, r0
	.loc 1 1006 9 view .LVU427
	mov	r0, r1
.LVL129:
	.loc 1 1006 9 view .LVU428
	str	r1, [sp, #4]
	bl	strlen
.LVL130:
	.loc 1 1007 10 view .LVU429
	ldr	r1, [sp, #4]
	.loc 1 1006 9 view .LVU430
	mov	r2, r0
.LVL131:
	.loc 1 1007 3 is_stmt 1 view .LVU431
	.loc 1 1007 10 is_stmt 0 view .LVU432
	mov	r0, r4
.LVL132:
	.loc 1 1008 1 view .LVU433
	add	sp, sp, #8
.LCFI18:
	@ sp needed
	pop	{r4, lr}
.LCFI19:
.LVL133:
	.loc 1 1007 10 view .LVU434
	b	SEGGER_RTT_Write
.LVL134:
	.loc 1 1007 10 view .LVU435
.LFE206:
	.size	SEGGER_RTT_WriteString, .-SEGGER_RTT_WriteString
	.section	.text.SEGGER_RTT_PutCharSkipNoLock,"ax",%progbits
	.align	1
	.global	SEGGER_RTT_PutCharSkipNoLock
	.syntax unified
	.thumb
	.thumb_func
	.fpu fpv4-sp-d16
	.type	SEGGER_RTT_PutCharSkipNoLock, %function
SEGGER_RTT_PutCharSkipNoLock:
.LVL135:
.LFB207:
	.loc 1 1033 69 is_stmt 1 view -0
	@ args = 0, pretend = 0, frame = 0
	@ frame_needed = 0, uses_anonymous_args = 0
	.loc 1 1034 3 view .LVU437
	.loc 1 1035 3 view .LVU438
	.loc 1 1036 3 view .LVU439
	.loc 1 1040 3 view .LVU440
	.loc 1 1044 3 view .LVU441
	.loc 1 1033 69 is_stmt 0 view .LVU442
	push	{r4, r5, r6, r7, lr}
.LCFI20:
	.loc 1 1044 16 view .LVU443
	ldr	r5, .L79
	movs	r2, #24
	mla	r4, r2, r0, r5
	ldr	r6, [r4, #36]
	.loc 1 1045 6 view .LVU444
	ldr	r7, [r4, #32]
	.loc 1 1044 9 view .LVU445
	adds	r3, r6, #1
.LVL136:
	.loc 1 1045 3 is_stmt 1 view .LVU446
	.loc 1 1046 11 is_stmt 0 view .LVU447
	cmp	r7, r3
	it	eq
	moveq	r3, #0
.LVL137:
	.loc 1 1051 3 is_stmt 1 view .LVU448
	.loc 1 1051 21 is_stmt 0 view .LVU449
	ldr	r7, [r4, #40]
	.loc 1 1051 6 view .LVU450
	cmp	r7, r3
	.loc 1 1052 5 is_stmt 1 view .LVU451
	.loc 1 1052 10 is_stmt 0 view .LVU452
	itttt	ne
	mlane	r2, r0, r2, r2
	addne	r2, r2, r5
	.loc 1 1054 12 view .LVU453
	movne	r0, #1
.LVL138:
	.loc 1 1052 34 view .LVU454
	ldrne	r2, [r2, #4]
	itet	ne
	strbne	r1, [r2, r6]
	.loc 1 1053 5 is_stmt 1 view .LVU455
	.loc 1 1056 12 is_stmt 0 view .LVU456
	moveq	r0, #0
	.loc 1 1053 18 view .LVU457
	strne	r3, [r4, #36]
	.loc 1 1054 5 is_stmt 1 view .LVU458
.LVL139:
	.loc 1 1059 3 view .LVU459
	.loc 1 1060 1 is_stmt 0 view .LVU460
	pop	{r4, r5, r6, r7, pc}
.L80:
	.align	2
.L79:
	.word	.LANCHOR0
.LFE207:
	.size	SEGGER_RTT_PutCharSkipNoLock, .-SEGGER_RTT_PutCharSkipNoLock
	.section	.text.SEGGER_RTT_PutCharSkip,"ax",%progbits
	.align	1
	.global	SEGGER_RTT_PutCharSkip
	.syntax unified
	.thumb
	.thumb_func
	.fpu fpv4-sp-d16
	.type	SEGGER_RTT_PutCharSkip, %function
SEGGER_RTT_PutCharSkip:
.LVL140:
.LFB208:
	.loc 1 1080 63 is_stmt 1 view -0
	@ args = 0, pretend = 0, frame = 8
	@ frame_needed = 0, uses_anonymous_args = 0
	.loc 1 1081 3 view .LVU462
	.loc 1 1082 3 view .LVU463
	.loc 1 1083 3 view .LVU464
	.loc 1 1087 3 view .LVU465
	.loc 1 1087 3 view .LVU466
	.loc 1 1080 63 is_stmt 0 view .LVU467
	push	{r0, r1, r4, r5, r6, r7, r8, lr}
.LCFI21:
	.loc 1 1087 3 view .LVU468
	ldr	r5, .L86
	ldrb	r3, [r5]	@ zero_extendqisi2
	.loc 1 1080 63 view .LVU469
	mov	r8, r0
	mov	r7, r1
	.loc 1 1087 3 view .LVU470
	cbnz	r3, .L82
	.loc 1 1087 3 is_stmt 1 discriminator 1 view .LVU471
	bl	_DoInit
.LVL141:
.L82:
	.loc 1 1087 3 discriminator 3 view .LVU472
.LBB7:
	.loc 1 1088 3 discriminator 3 view .LVU473
	movs	r4, #0
	add	r0, sp, #7
	strb	r4, [sp, #7]
	.loc 1 1088 3 discriminator 3 view .LVU474
	bl	app_util_critical_region_enter
.LVL142:
	.loc 1 1088 20 discriminator 3 view .LVU475
	.loc 1 1092 3 discriminator 3 view .LVU476
	.loc 1 1096 3 discriminator 3 view .LVU477
	.loc 1 1096 16 is_stmt 0 discriminator 3 view .LVU478
	movs	r2, #24
	mla	r6, r2, r8, r5
	ldr	r0, [r6, #36]
	.loc 1 1097 6 discriminator 3 view .LVU479
	ldr	r1, [r6, #32]
	.loc 1 1096 9 discriminator 3 view .LVU480
	adds	r3, r0, #1
.LVL143:
	.loc 1 1097 3 is_stmt 1 discriminator 3 view .LVU481
	.loc 1 1098 11 is_stmt 0 discriminator 3 view .LVU482
	cmp	r1, r3
	it	eq
	moveq	r3, r4
.LVL144:
	.loc 1 1103 3 is_stmt 1 discriminator 3 view .LVU483
	.loc 1 1103 21 is_stmt 0 discriminator 3 view .LVU484
	ldr	r1, [r6, #40]
	.loc 1 1103 6 discriminator 3 view .LVU485
	cmp	r1, r3
	beq	.L84
	.loc 1 1104 5 is_stmt 1 view .LVU486
	.loc 1 1104 10 is_stmt 0 view .LVU487
	mla	r2, r8, r2, r2
	add	r5, r5, r2
	.loc 1 1106 12 view .LVU488
	movs	r4, #1
	.loc 1 1104 34 view .LVU489
	ldr	r2, [r5, #4]
	strb	r7, [r2, r0]
	.loc 1 1105 5 is_stmt 1 view .LVU490
	.loc 1 1105 18 is_stmt 0 view .LVU491
	str	r3, [r6, #36]
	.loc 1 1106 5 is_stmt 1 view .LVU492
.LVL145:
.L84:
	.loc 1 1113 3 view .LVU493
	ldrb	r0, [sp, #7]	@ zero_extendqisi2
	bl	app_util_critical_region_exit
.LVL146:
	.loc 1 1113 3 is_stmt 0 view .LVU494
.LBE7:
	.loc 1 1113 22 is_stmt 1 view .LVU495
	.loc 1 1115 3 view .LVU496
	.loc 1 1116 1 is_stmt 0 view .LVU497
	mov	r0, r4
	add	sp, sp, #8
.LCFI22:
	@ sp needed
	pop	{r4, r5, r6, r7, r8, pc}
.LVL147:
.L87:
	.loc 1 1116 1 view .LVU498
	.align	2
.L86:
	.word	.LANCHOR0
.LFE208:
	.size	SEGGER_RTT_PutCharSkip, .-SEGGER_RTT_PutCharSkip
	.section	.text.SEGGER_RTT_PutChar,"ax",%progbits
	.align	1
	.global	SEGGER_RTT_PutChar
	.syntax unified
	.thumb
	.thumb_func
	.fpu fpv4-sp-d16
	.type	SEGGER_RTT_PutChar, %function
SEGGER_RTT_PutChar:
.LVL148:
.LFB209:
	.loc 1 1136 59 is_stmt 1 view -0
	@ args = 0, pretend = 0, frame = 8
	@ frame_needed = 0, uses_anonymous_args = 0
	.loc 1 1137 3 view .LVU500
	.loc 1 1138 3 view .LVU501
	.loc 1 1139 3 view .LVU502
	.loc 1 1143 3 view .LVU503
	.loc 1 1143 3 view .LVU504
	.loc 1 1136 59 is_stmt 0 view .LVU505
	push	{r0, r1, r2, r4, r5, r6, r7, lr}
.LCFI23:
	.loc 1 1143 3 view .LVU506
	ldr	r4, .L97
	ldrb	r3, [r4]	@ zero_extendqisi2
	.loc 1 1136 59 view .LVU507
	mov	r6, r0
	mov	r5, r1
	.loc 1 1143 3 view .LVU508
	cbnz	r3, .L89
	.loc 1 1143 3 is_stmt 1 discriminator 1 view .LVU509
	bl	_DoInit
.LVL149:
.L89:
	.loc 1 1143 3 discriminator 3 view .LVU510
.LBB8:
	.loc 1 1144 3 discriminator 3 view .LVU511
	movs	r3, #0
	add	r0, sp, #7
	strb	r3, [sp, #7]
	.loc 1 1144 3 discriminator 3 view .LVU512
	bl	app_util_critical_region_enter
.LVL150:
	.loc 1 1144 20 discriminator 3 view .LVU513
	.loc 1 1148 3 discriminator 3 view .LVU514
	.loc 1 1152 3 discriminator 3 view .LVU515
	.loc 1 1152 16 is_stmt 0 discriminator 3 view .LVU516
	movs	r2, #24
	mla	r2, r2, r6, r4
	ldr	r0, [r2, #36]
	.loc 1 1153 6 discriminator 3 view .LVU517
	ldr	r1, [r2, #32]
	.loc 1 1152 9 discriminator 3 view .LVU518
	adds	r3, r0, #1
.LVL151:
	.loc 1 1153 3 is_stmt 1 discriminator 3 view .LVU519
	.loc 1 1154 11 is_stmt 0 discriminator 3 view .LVU520
	cmp	r1, r3
	it	eq
	moveq	r3, #0
.LVL152:
	.loc 1 1159 3 is_stmt 1 discriminator 3 view .LVU521
	.loc 1 1159 6 is_stmt 0 discriminator 3 view .LVU522
	ldr	r1, [r2, #44]
	cmp	r1, #2
.L96:
	bne	.L91
	.loc 1 1161 7 is_stmt 1 discriminator 1 view .LVU523
	.loc 1 1160 11 discriminator 1 view .LVU524
	.loc 1 1160 26 is_stmt 0 discriminator 1 view .LVU525
	ldr	r1, [r2, #40]
	.loc 1 1160 11 discriminator 1 view .LVU526
	cmp	r1, r3
	b	.L96
.L91:
	.loc 1 1167 3 is_stmt 1 view .LVU527
	.loc 1 1167 21 is_stmt 0 view .LVU528
	movs	r2, #24
	mla	r1, r2, r6, r4
	ldr	r7, [r1, #40]
	.loc 1 1167 6 view .LVU529
	cmp	r7, r3
	.loc 1 1168 5 is_stmt 1 view .LVU530
	.loc 1 1168 10 is_stmt 0 view .LVU531
	ittet	ne
	mlane	r2, r6, r2, r2
	addne	r4, r4, r2
	.loc 1 1172 12 view .LVU532
	moveq	r4, #0
	.loc 1 1168 34 view .LVU533
	ldrne	r2, [r4, #4]
	itt	ne
	strbne	r5, [r2, r0]
	.loc 1 1169 5 is_stmt 1 view .LVU534
	.loc 1 1169 18 is_stmt 0 view .LVU535
	strne	r3, [r1, #36]
	.loc 1 1170 5 is_stmt 1 view .LVU536
.LVL153:
	.loc 1 1177 3 is_stmt 0 view .LVU537
	ldrb	r0, [sp, #7]	@ zero_extendqisi2
	.loc 1 1170 12 view .LVU538
	it	ne
	movne	r4, #1
.LVL154:
	.loc 1 1177 3 is_stmt 1 view .LVU539
	bl	app_util_critical_region_exit
.LVL155:
	.loc 1 1177 3 is_stmt 0 view .LVU540
.LBE8:
	.loc 1 1177 22 is_stmt 1 view .LVU541
	.loc 1 1179 3 view .LVU542
	.loc 1 1180 1 is_stmt 0 view .LVU543
	mov	r0, r4
	add	sp, sp, #12
.LCFI24:
	@ sp needed
	pop	{r4, r5, r6, r7, pc}
.LVL156:
.L98:
	.loc 1 1180 1 view .LVU544
	.align	2
.L97:
	.word	.LANCHOR0
.LFE209:
	.size	SEGGER_RTT_PutChar, .-SEGGER_RTT_PutChar
	.section	.text.SEGGER_RTT_GetKey,"ax",%progbits
	.align	1
	.global	SEGGER_RTT_GetKey
	.syntax unified
	.thumb
	.thumb_func
	.fpu fpv4-sp-d16
	.type	SEGGER_RTT_GetKey, %function
SEGGER_RTT_GetKey:
.LFB210:
	.loc 1 1197 29 is_stmt 1 view -0
	@ args = 0, pretend = 0, frame = 8
	@ frame_needed = 0, uses_anonymous_args = 0
	.loc 1 1198 3 view .LVU546
	.loc 1 1199 3 view .LVU547
	.loc 1 1201 3 view .LVU548
	.loc 1 1197 29 is_stmt 0 view .LVU549
	push	{r0, r1, r2, lr}
.LCFI25:
	.loc 1 1201 12 view .LVU550
	movs	r2, #1
	add	r1, sp, #7
	movs	r0, #0
	bl	SEGGER_RTT_Read
.LVL157:
	.loc 1 1202 3 is_stmt 1 view .LVU551
	.loc 1 1202 6 is_stmt 0 view .LVU552
	cmp	r0, #1
	.loc 1 1203 5 is_stmt 1 view .LVU553
	.loc 1 1203 7 is_stmt 0 view .LVU554
	ite	eq
	ldrbeq	r0, [sp, #7]	@ zero_extendqisi2
.LVL158:
	.loc 1 1205 7 view .LVU555
	movne	r0, #-1
.LVL159:
	.loc 1 1207 3 is_stmt 1 view .LVU556
	.loc 1 1208 1 is_stmt 0 view .LVU557
	add	sp, sp, #12
.LCFI26:
	@ sp needed
	ldr	pc, [sp], #4
.LFE210:
	.size	SEGGER_RTT_GetKey, .-SEGGER_RTT_GetKey
	.section	.text.SEGGER_RTT_WaitKey,"ax",%progbits
	.align	1
	.global	SEGGER_RTT_WaitKey
	.syntax unified
	.thumb
	.thumb_func
	.fpu fpv4-sp-d16
	.type	SEGGER_RTT_WaitKey, %function
SEGGER_RTT_WaitKey:
.LFB211:
	.loc 1 1225 30 is_stmt 1 view -0
	@ args = 0, pretend = 0, frame = 0
	@ frame_needed = 0, uses_anonymous_args = 0
	push	{r3, lr}
.LCFI27:
.L103:
	.loc 1 1226 3 discriminator 1 view .LVU559
	.loc 1 1228 3 discriminator 1 view .LVU560
	.loc 1 1229 5 discriminator 1 view .LVU561
	.loc 1 1229 9 is_stmt 0 discriminator 1 view .LVU562
	bl	SEGGER_RTT_GetKey
.LVL160:
	.loc 1 1230 11 is_stmt 1 discriminator 1 view .LVU563
	.loc 1 1230 3 is_stmt 0 discriminator 1 view .LVU564
	cmp	r0, #0
	blt	.L103
	.loc 1 1231 3 is_stmt 1 view .LVU565
	.loc 1 1232 1 is_stmt 0 view .LVU566
	pop	{r3, pc}
.LFE211:
	.size	SEGGER_RTT_WaitKey, .-SEGGER_RTT_WaitKey
	.section	.text.SEGGER_RTT_HasKey,"ax",%progbits
	.align	1
	.global	SEGGER_RTT_HasKey
	.syntax unified
	.thumb
	.thumb_func
	.fpu fpv4-sp-d16
	.type	SEGGER_RTT_HasKey, %function
SEGGER_RTT_HasKey:
.LFB212:
	.loc 1 1248 29 is_stmt 1 view -0
	@ args = 0, pretend = 0, frame = 0
	@ frame_needed = 0, uses_anonymous_args = 0
	.loc 1 1249 3 view .LVU568
	.loc 1 1250 3 view .LVU569
	.loc 1 1252 3 view .LVU570
	.loc 1 1252 3 view .LVU571
	.loc 1 1248 29 is_stmt 0 view .LVU572
	push	{r4, lr}
.LCFI28:
	.loc 1 1252 3 view .LVU573
	ldr	r4, .L107
	ldrb	r3, [r4]	@ zero_extendqisi2
	cbnz	r3, .L106
	.loc 1 1252 3 is_stmt 1 discriminator 1 view .LVU574
	bl	_DoInit
.LVL161:
.L106:
	.loc 1 1252 3 discriminator 3 view .LVU575
	.loc 1 1253 3 discriminator 3 view .LVU576
	.loc 1 1254 3 discriminator 3 view .LVU577
	.loc 1 1254 36 is_stmt 0 discriminator 3 view .LVU578
	ldr	r3, [r4, #84]
.LVL162:
	.loc 1 1259 3 is_stmt 1 discriminator 3 view .LVU579
	.loc 1 1254 6 is_stmt 0 discriminator 3 view .LVU580
	ldr	r0, [r4, #88]
	.loc 1 1260 1 discriminator 3 view .LVU581
	subs	r0, r0, r3
	it	ne
	movne	r0, #1
	pop	{r4, pc}
.L108:
	.align	2
.L107:
	.word	.LANCHOR0
.LFE212:
	.size	SEGGER_RTT_HasKey, .-SEGGER_RTT_HasKey
	.section	.text.SEGGER_RTT_HasData,"ax",%progbits
	.align	1
	.global	SEGGER_RTT_HasData
	.syntax unified
	.thumb
	.thumb_func
	.fpu fpv4-sp-d16
	.type	SEGGER_RTT_HasData, %function
SEGGER_RTT_HasData:
.LVL163:
.LFB213:
	.loc 1 1274 51 is_stmt 1 view -0
	@ args = 0, pretend = 0, frame = 0
	@ frame_needed = 0, uses_anonymous_args = 0
	@ link register save eliminated.
	.loc 1 1275 3 view .LVU583
	.loc 1 1276 3 view .LVU584
	.loc 1 1278 3 view .LVU585
	.loc 1 1279 3 view .LVU586
	.loc 1 1279 5 is_stmt 0 view .LVU587
	ldr	r3, .L110
	movs	r2, #24
	mla	r0, r2, r0, r3
.LVL164:
	.loc 1 1279 5 view .LVU588
	ldr	r2, [r0, #84]
.LVL165:
	.loc 1 1280 3 is_stmt 1 view .LVU589
	.loc 1 1280 12 is_stmt 0 view .LVU590
	ldr	r0, [r0, #88]
	.loc 1 1281 1 view .LVU591
	subs	r0, r2, r0
	bx	lr
.L111:
	.align	2
.L110:
	.word	.LANCHOR0
.LFE213:
	.size	SEGGER_RTT_HasData, .-SEGGER_RTT_HasData
	.section	.text.SEGGER_RTT_AllocDownBuffer,"ax",%progbits
	.align	1
	.global	SEGGER_RTT_AllocDownBuffer
	.syntax unified
	.thumb
	.thumb_func
	.fpu fpv4-sp-d16
	.type	SEGGER_RTT_AllocDownBuffer, %function
SEGGER_RTT_AllocDownBuffer:
.LVL166:
.LFB214:
	.loc 1 1302 103 is_stmt 1 view -0
	@ args = 0, pretend = 0, frame = 8
	@ frame_needed = 0, uses_anonymous_args = 0
	.loc 1 1303 3 view .LVU593
	.loc 1 1305 3 view .LVU594
	.loc 1 1305 3 view .LVU595
	.loc 1 1302 103 is_stmt 0 view .LVU596
	push	{r0, r1, r2, r4, r5, r6, r7, r8, r9, lr}
.LCFI29:
	.loc 1 1305 3 view .LVU597
	ldr	r4, .L120
	.loc 1 1302 103 view .LVU598
	mov	r6, r3
	.loc 1 1305 3 view .LVU599
	ldrb	r3, [r4]	@ zero_extendqisi2
.LVL167:
	.loc 1 1302 103 view .LVU600
	mov	r9, r0
	mov	r8, r1
	mov	r7, r2
	.loc 1 1305 3 view .LVU601
	cbnz	r3, .L113
	.loc 1 1305 3 is_stmt 1 discriminator 1 view .LVU602
	bl	_DoInit
.LVL168:
.L113:
	.loc 1 1305 3 discriminator 3 view .LVU603
.LBB9:
	.loc 1 1306 3 discriminator 3 view .LVU604
	movs	r3, #0
	add	r0, sp, #7
	strb	r3, [sp, #7]
	.loc 1 1306 3 discriminator 3 view .LVU605
	bl	app_util_critical_region_enter
.LVL169:
	.loc 1 1306 20 discriminator 3 view .LVU606
	.loc 1 1307 3 discriminator 3 view .LVU607
	.loc 1 1308 3 discriminator 3 view .LVU608
	.loc 1 1309 5 discriminator 3 view .LVU609
	.loc 1 1309 8 is_stmt 0 discriminator 3 view .LVU610
	ldr	r5, [r4, #76]
	cbz	r5, .L114
	.loc 1 1312 5 is_stmt 1 view .LVU611
.LVL170:
	.loc 1 1313 11 view .LVU612
	.loc 1 1313 3 is_stmt 0 view .LVU613
	ldr	r3, [r4, #20]
	cmp	r3, #1
	ble	.L117
	.loc 1 1308 3 is_stmt 1 view .LVU614
	.loc 1 1309 5 view .LVU615
	.loc 1 1309 8 is_stmt 0 view .LVU616
	ldr	r3, [r4, #100]
	.loc 1 1312 16 view .LVU617
	cmp	r3, #0
	ite	eq
	moveq	r5, #1
	movne	r5, #2
.LVL171:
.L114:
	.loc 1 1314 3 is_stmt 1 view .LVU618
	.loc 1 1314 6 is_stmt 0 view .LVU619
	ldr	r3, [r4, #20]
	cmp	r3, r5
	ble	.L119
	.loc 1 1315 5 is_stmt 1 view .LVU620
	.loc 1 1315 49 is_stmt 0 view .LVU621
	movs	r3, #24
	mla	r4, r3, r5, r4
	.loc 1 1316 49 view .LVU622
	strd	r9, r8, [r4, #72]
	.loc 1 1317 5 is_stmt 1 view .LVU623
	.loc 1 1318 49 is_stmt 0 view .LVU624
	movs	r3, #0
	.loc 1 1317 49 view .LVU625
	str	r7, [r4, #80]
	.loc 1 1318 5 is_stmt 1 view .LVU626
	.loc 1 1318 49 is_stmt 0 view .LVU627
	str	r3, [r4, #88]
	.loc 1 1319 5 is_stmt 1 view .LVU628
	.loc 1 1319 49 is_stmt 0 view .LVU629
	str	r3, [r4, #84]
	.loc 1 1320 5 is_stmt 1 view .LVU630
	.loc 1 1320 49 is_stmt 0 view .LVU631
	str	r6, [r4, #92]
.LVL172:
.L115:
	.loc 1 1324 3 is_stmt 1 view .LVU632
	ldrb	r0, [sp, #7]	@ zero_extendqisi2
	bl	app_util_critical_region_exit
.LVL173:
.LBE9:
	.loc 1 1324 22 view .LVU633
	.loc 1 1325 3 view .LVU634
	.loc 1 1326 1 is_stmt 0 view .LVU635
	mov	r0, r5
	add	sp, sp, #12
.LCFI30:
	@ sp needed
	pop	{r4, r5, r6, r7, r8, r9, pc}
.LVL174:
.L117:
.LCFI31:
.LBB10:
	.loc 1 1312 16 view .LVU636
	movs	r5, #1
	b	.L114
.LVL175:
.L119:
	.loc 1 1322 17 view .LVU637
	mov	r5, #-1
.LVL176:
	.loc 1 1322 17 view .LVU638
	b	.L115
.L121:
	.align	2
.L120:
	.word	.LANCHOR0
.LBE10:
.LFE214:
	.size	SEGGER_RTT_AllocDownBuffer, .-SEGGER_RTT_AllocDownBuffer
	.section	.text.SEGGER_RTT_AllocUpBuffer,"ax",%progbits
	.align	1
	.global	SEGGER_RTT_AllocUpBuffer
	.syntax unified
	.thumb
	.thumb_func
	.fpu fpv4-sp-d16
	.type	SEGGER_RTT_AllocUpBuffer, %function
SEGGER_RTT_AllocUpBuffer:
.LVL177:
.LFB215:
	.loc 1 1347 101 is_stmt 1 view -0
	@ args = 0, pretend = 0, frame = 8
	@ frame_needed = 0, uses_anonymous_args = 0
	.loc 1 1348 3 view .LVU640
	.loc 1 1350 3 view .LVU641
	.loc 1 1350 3 view .LVU642
	.loc 1 1347 101 is_stmt 0 view .LVU643
	push	{r0, r1, r2, r4, r5, r6, r7, r8, r9, lr}
.LCFI32:
	.loc 1 1350 3 view .LVU644
	ldr	r4, .L130
	.loc 1 1347 101 view .LVU645
	mov	r6, r3
	.loc 1 1350 3 view .LVU646
	ldrb	r3, [r4]	@ zero_extendqisi2
.LVL178:
	.loc 1 1347 101 view .LVU647
	mov	r9, r0
	mov	r8, r1
	mov	r7, r2
	.loc 1 1350 3 view .LVU648
	cbnz	r3, .L123
	.loc 1 1350 3 is_stmt 1 discriminator 1 view .LVU649
	bl	_DoInit
.LVL179:
.L123:
	.loc 1 1350 3 discriminator 3 view .LVU650
.LBB11:
	.loc 1 1351 3 discriminator 3 view .LVU651
	movs	r3, #0
	add	r0, sp, #7
	strb	r3, [sp, #7]
	.loc 1 1351 3 discriminator 3 view .LVU652
	bl	app_util_critical_region_enter
.LVL180:
	.loc 1 1351 20 discriminator 3 view .LVU653
	.loc 1 1352 3 discriminator 3 view .LVU654
	.loc 1 1353 3 discriminator 3 view .LVU655
	.loc 1 1354 5 discriminator 3 view .LVU656
	.loc 1 1354 8 is_stmt 0 discriminator 3 view .LVU657
	ldr	r5, [r4, #28]
	cbz	r5, .L124
	.loc 1 1357 5 is_stmt 1 view .LVU658
.LVL181:
	.loc 1 1358 11 view .LVU659
	.loc 1 1358 3 is_stmt 0 view .LVU660
	ldr	r3, [r4, #16]
	cmp	r3, #1
	ble	.L127
	.loc 1 1353 3 is_stmt 1 view .LVU661
	.loc 1 1354 5 view .LVU662
	.loc 1 1354 8 is_stmt 0 view .LVU663
	ldr	r3, [r4, #52]
	.loc 1 1357 16 view .LVU664
	cmp	r3, #0
	ite	eq
	moveq	r5, #1
	movne	r5, #2
.LVL182:
.L124:
	.loc 1 1359 3 is_stmt 1 view .LVU665
	.loc 1 1359 6 is_stmt 0 view .LVU666
	ldr	r3, [r4, #16]
	cmp	r3, r5
	ble	.L129
	.loc 1 1360 5 is_stmt 1 view .LVU667
	.loc 1 1360 47 is_stmt 0 view .LVU668
	movs	r3, #24
	mla	r2, r5, r3, r3
	adds	r1, r4, r2
	str	r9, [r4, r2]
	.loc 1 1361 5 is_stmt 1 view .LVU669
	.loc 1 1362 47 is_stmt 0 view .LVU670
	mla	r4, r3, r5, r4
	.loc 1 1363 47 view .LVU671
	movs	r3, #0
	.loc 1 1361 47 view .LVU672
	str	r8, [r1, #4]
	.loc 1 1362 5 is_stmt 1 view .LVU673
	.loc 1 1362 47 is_stmt 0 view .LVU674
	str	r7, [r4, #32]
	.loc 1 1363 5 is_stmt 1 view .LVU675
	.loc 1 1363 47 is_stmt 0 view .LVU676
	str	r3, [r4, #40]
	.loc 1 1364 5 is_stmt 1 view .LVU677
	.loc 1 1364 47 is_stmt 0 view .LVU678
	str	r3, [r4, #36]
	.loc 1 1365 5 is_stmt 1 view .LVU679
	.loc 1 1365 47 is_stmt 0 view .LVU680
	str	r6, [r4, #44]
.LVL183:
.L125:
	.loc 1 1369 3 is_stmt 1 view .LVU681
	ldrb	r0, [sp, #7]	@ zero_extendqisi2
	bl	app_util_critical_region_exit
.LVL184:
.LBE11:
	.loc 1 1369 22 view .LVU682
	.loc 1 1370 3 view .LVU683
	.loc 1 1371 1 is_stmt 0 view .LVU684
	mov	r0, r5
	add	sp, sp, #12
.LCFI33:
	@ sp needed
	pop	{r4, r5, r6, r7, r8, r9, pc}
.LVL185:
.L127:
.LCFI34:
.LBB12:
	.loc 1 1357 16 view .LVU685
	movs	r5, #1
	b	.L124
.LVL186:
.L129:
	.loc 1 1367 17 view .LVU686
	mov	r5, #-1
.LVL187:
	.loc 1 1367 17 view .LVU687
	b	.L125
.L131:
	.align	2
.L130:
	.word	.LANCHOR0
.LBE12:
.LFE215:
	.size	SEGGER_RTT_AllocUpBuffer, .-SEGGER_RTT_AllocUpBuffer
	.section	.text.SEGGER_RTT_ConfigUpBuffer,"ax",%progbits
	.align	1
	.global	SEGGER_RTT_ConfigUpBuffer
	.syntax unified
	.thumb
	.thumb_func
	.fpu fpv4-sp-d16
	.type	SEGGER_RTT_ConfigUpBuffer, %function
SEGGER_RTT_ConfigUpBuffer:
.LVL188:
.LFB216:
	.loc 1 1398 124 is_stmt 1 view -0
	@ args = 4, pretend = 0, frame = 8
	@ frame_needed = 0, uses_anonymous_args = 0
	.loc 1 1399 3 view .LVU689
	.loc 1 1401 3 view .LVU690
	.loc 1 1401 3 view .LVU691
	.loc 1 1398 124 is_stmt 0 view .LVU692
	push	{r0, r1, r2, r4, r5, r6, r7, r8, r9, lr}
.LCFI35:
	.loc 1 1401 3 view .LVU693
	ldr	r4, .L140
	.loc 1 1398 124 view .LVU694
	mov	r7, r3
	.loc 1 1401 3 view .LVU695
	ldrb	r3, [r4]	@ zero_extendqisi2
.LVL189:
	.loc 1 1398 124 view .LVU696
	mov	r5, r0
	mov	r9, r1
	mov	r8, r2
	.loc 1 1401 3 view .LVU697
	cbnz	r3, .L133
	.loc 1 1401 3 is_stmt 1 discriminator 1 view .LVU698
	bl	_DoInit
.LVL190:
.L133:
	.loc 1 1401 3 discriminator 3 view .LVU699
	.loc 1 1402 3 discriminator 3 view .LVU700
	.loc 1 1402 6 is_stmt 0 discriminator 3 view .LVU701
	ldr	r3, [r4, #16]
	cmp	r3, r5
	bls	.L136
.LBB13:
	.loc 1 1403 5 is_stmt 1 view .LVU702
	movs	r6, #0
	add	r0, sp, #7
	strb	r6, [sp, #7]
	.loc 1 1403 5 view .LVU703
	bl	app_util_critical_region_enter
.LVL191:
	.loc 1 1403 22 view .LVU704
	.loc 1 1404 5 view .LVU705
	.loc 1 1404 8 is_stmt 0 view .LVU706
	cbz	r5, .L135
	.loc 1 1405 7 is_stmt 1 view .LVU707
	.loc 1 1405 49 is_stmt 0 view .LVU708
	movs	r0, #24
	mla	r3, r5, r0, r0
	adds	r2, r4, r3
	str	r9, [r4, r3]
	.loc 1 1406 7 is_stmt 1 view .LVU709
	.loc 1 1406 49 is_stmt 0 view .LVU710
	str	r8, [r2, #4]
	.loc 1 1407 7 is_stmt 1 view .LVU711
	.loc 1 1407 49 is_stmt 0 view .LVU712
	mla	r2, r0, r5, r4
	str	r7, [r2, #32]
	.loc 1 1408 7 is_stmt 1 view .LVU713
	.loc 1 1408 49 is_stmt 0 view .LVU714
	str	r6, [r2, #40]
	.loc 1 1409 7 is_stmt 1 view .LVU715
	.loc 1 1409 49 is_stmt 0 view .LVU716
	str	r6, [r2, #36]
.L135:
	.loc 1 1411 5 is_stmt 1 view .LVU717
	.loc 1 1411 49 is_stmt 0 view .LVU718
	movs	r0, #24
	mla	r4, r0, r5, r4
	ldr	r3, [sp, #40]
	.loc 1 1412 5 view .LVU719
	ldrb	r0, [sp, #7]	@ zero_extendqisi2
	.loc 1 1411 49 view .LVU720
	str	r3, [r4, #44]
	.loc 1 1412 5 is_stmt 1 view .LVU721
	bl	app_util_critical_region_exit
.LVL192:
.LBE13:
	.loc 1 1412 24 view .LVU722
	.loc 1 1413 5 view .LVU723
	.loc 1 1413 7 is_stmt 0 view .LVU724
	movs	r0, #0
.LVL193:
.L132:
	.loc 1 1418 1 view .LVU725
	add	sp, sp, #12
.LCFI36:
	@ sp needed
	pop	{r4, r5, r6, r7, r8, r9, pc}
.LVL194:
.L136:
.LCFI37:
	.loc 1 1415 7 view .LVU726
	mov	r0, #-1
.LVL195:
	.loc 1 1417 3 is_stmt 1 view .LVU727
	.loc 1 1417 10 is_stmt 0 view .LVU728
	b	.L132
.L141:
	.align	2
.L140:
	.word	.LANCHOR0
.LFE216:
	.size	SEGGER_RTT_ConfigUpBuffer, .-SEGGER_RTT_ConfigUpBuffer
	.section	.text.SEGGER_RTT_ConfigDownBuffer,"ax",%progbits
	.align	1
	.global	SEGGER_RTT_ConfigDownBuffer
	.syntax unified
	.thumb
	.thumb_func
	.fpu fpv4-sp-d16
	.type	SEGGER_RTT_ConfigDownBuffer, %function
SEGGER_RTT_ConfigDownBuffer:
.LVL196:
.LFB217:
	.loc 1 1445 126 is_stmt 1 view -0
	@ args = 4, pretend = 0, frame = 8
	@ frame_needed = 0, uses_anonymous_args = 0
	.loc 1 1446 3 view .LVU730
	.loc 1 1448 3 view .LVU731
	.loc 1 1448 3 view .LVU732
	.loc 1 1445 126 is_stmt 0 view .LVU733
	push	{r0, r1, r4, r5, r6, r7, r8, r9, r10, lr}
.LCFI38:
	.loc 1 1448 3 view .LVU734
	ldr	r5, .L150
	.loc 1 1445 126 view .LVU735
	mov	r8, r3
	.loc 1 1448 3 view .LVU736
	ldrb	r3, [r5]	@ zero_extendqisi2
.LVL197:
	.loc 1 1445 126 view .LVU737
	mov	r6, r0
	mov	r10, r1
	mov	r9, r2
	.loc 1 1448 3 view .LVU738
	cbnz	r3, .L143
	.loc 1 1448 3 is_stmt 1 discriminator 1 view .LVU739
	bl	_DoInit
.LVL198:
.L143:
	.loc 1 1448 3 discriminator 3 view .LVU740
	.loc 1 1449 3 discriminator 3 view .LVU741
	.loc 1 1449 6 is_stmt 0 discriminator 3 view .LVU742
	ldr	r3, [r5, #20]
	cmp	r3, r6
	bls	.L146
.LBB14:
	.loc 1 1450 5 is_stmt 1 view .LVU743
	movs	r7, #0
	add	r0, sp, #7
	strb	r7, [sp, #7]
	.loc 1 1450 5 view .LVU744
	bl	app_util_critical_region_enter
.LVL199:
	.loc 1 1450 22 view .LVU745
	.loc 1 1451 5 view .LVU746
	.loc 1 1451 8 is_stmt 0 view .LVU747
	cbz	r6, .L145
	.loc 1 1452 7 is_stmt 1 view .LVU748
	.loc 1 1452 51 is_stmt 0 view .LVU749
	movs	r4, #24
	mla	r4, r4, r6, r5
	.loc 1 1453 51 view .LVU750
	strd	r10, r9, [r4, #72]
	.loc 1 1454 7 is_stmt 1 view .LVU751
	.loc 1 1454 51 is_stmt 0 view .LVU752
	str	r8, [r4, #80]
	.loc 1 1455 7 is_stmt 1 view .LVU753
	.loc 1 1455 51 is_stmt 0 view .LVU754
	str	r7, [r4, #88]
	.loc 1 1456 7 is_stmt 1 view .LVU755
	.loc 1 1456 51 is_stmt 0 view .LVU756
	str	r7, [r4, #84]
.L145:
	.loc 1 1458 5 is_stmt 1 view .LVU757
	.loc 1 1458 51 is_stmt 0 view .LVU758
	movs	r0, #24
	mla	r5, r0, r6, r5
	ldr	r3, [sp, #40]
	.loc 1 1459 5 view .LVU759
	ldrb	r0, [sp, #7]	@ zero_extendqisi2
	.loc 1 1458 51 view .LVU760
	str	r3, [r5, #92]
	.loc 1 1459 5 is_stmt 1 view .LVU761
	bl	app_util_critical_region_exit
.LVL200:
.LBE14:
	.loc 1 1459 24 view .LVU762
	.loc 1 1460 5 view .LVU763
	.loc 1 1460 7 is_stmt 0 view .LVU764
	movs	r0, #0
.LVL201:
.L142:
	.loc 1 1465 1 view .LVU765
	add	sp, sp, #8
.LCFI39:
	@ sp needed
	pop	{r4, r5, r6, r7, r8, r9, r10, pc}
.LVL202:
.L146:
.LCFI40:
	.loc 1 1462 7 view .LVU766
	mov	r0, #-1
.LVL203:
	.loc 1 1464 3 is_stmt 1 view .LVU767
	.loc 1 1464 10 is_stmt 0 view .LVU768
	b	.L142
.L151:
	.align	2
.L150:
	.word	.LANCHOR0
.LFE217:
	.size	SEGGER_RTT_ConfigDownBuffer, .-SEGGER_RTT_ConfigDownBuffer
	.section	.text.SEGGER_RTT_SetNameUpBuffer,"ax",%progbits
	.align	1
	.global	SEGGER_RTT_SetNameUpBuffer
	.syntax unified
	.thumb
	.thumb_func
	.fpu fpv4-sp-d16
	.type	SEGGER_RTT_SetNameUpBuffer, %function
SEGGER_RTT_SetNameUpBuffer:
.LVL204:
.LFB218:
	.loc 1 1483 73 is_stmt 1 view -0
	@ args = 0, pretend = 0, frame = 8
	@ frame_needed = 0, uses_anonymous_args = 0
	.loc 1 1484 3 view .LVU770
	.loc 1 1486 3 view .LVU771
	.loc 1 1486 3 view .LVU772
	.loc 1 1483 73 is_stmt 0 view .LVU773
	push	{r0, r1, r2, r4, r5, r6, r7, lr}
.LCFI41:
	.loc 1 1486 3 view .LVU774
	ldr	r6, .L156
	ldrb	r3, [r6]	@ zero_extendqisi2
	.loc 1 1483 73 view .LVU775
	mov	r5, r0
	mov	r7, r1
	.loc 1 1486 3 view .LVU776
	cbnz	r3, .L153
	.loc 1 1486 3 is_stmt 1 discriminator 1 view .LVU777
	bl	_DoInit
.LVL205:
.L153:
	.loc 1 1486 3 discriminator 3 view .LVU778
	.loc 1 1487 3 discriminator 3 view .LVU779
	.loc 1 1487 6 is_stmt 0 discriminator 3 view .LVU780
	ldr	r3, [r6, #16]
	cmp	r3, r5
	bls	.L155
.LBB15:
	.loc 1 1488 5 is_stmt 1 view .LVU781
	movs	r4, #0
	add	r0, sp, #7
	strb	r4, [sp, #7]
	.loc 1 1488 5 view .LVU782
	bl	app_util_critical_region_enter
.LVL206:
	.loc 1 1488 22 view .LVU783
	.loc 1 1489 5 view .LVU784
	.loc 1 1489 40 is_stmt 0 view .LVU785
	movs	r3, #24
	mla	r3, r5, r3, r3
	.loc 1 1490 5 view .LVU786
	ldrb	r0, [sp, #7]	@ zero_extendqisi2
	.loc 1 1489 40 view .LVU787
	str	r7, [r6, r3]
	.loc 1 1490 5 is_stmt 1 view .LVU788
	bl	app_util_critical_region_exit
.LVL207:
.LBE15:
	.loc 1 1490 24 view .LVU789
	.loc 1 1491 5 view .LVU790
	.loc 1 1491 7 is_stmt 0 view .LVU791
	mov	r0, r4
.LVL208:
.L152:
	.loc 1 1496 1 view .LVU792
	add	sp, sp, #12
.LCFI42:
	@ sp needed
	pop	{r4, r5, r6, r7, pc}
.LVL209:
.L155:
.LCFI43:
	.loc 1 1493 7 view .LVU793
	mov	r0, #-1
.LVL210:
	.loc 1 1495 3 is_stmt 1 view .LVU794
	.loc 1 1495 10 is_stmt 0 view .LVU795
	b	.L152
.L157:
	.align	2
.L156:
	.word	.LANCHOR0
.LFE218:
	.size	SEGGER_RTT_SetNameUpBuffer, .-SEGGER_RTT_SetNameUpBuffer
	.section	.text.SEGGER_RTT_SetNameDownBuffer,"ax",%progbits
	.align	1
	.global	SEGGER_RTT_SetNameDownBuffer
	.syntax unified
	.thumb
	.thumb_func
	.fpu fpv4-sp-d16
	.type	SEGGER_RTT_SetNameDownBuffer, %function
SEGGER_RTT_SetNameDownBuffer:
.LVL211:
.LFB219:
	.loc 1 1514 75 is_stmt 1 view -0
	@ args = 0, pretend = 0, frame = 8
	@ frame_needed = 0, uses_anonymous_args = 0
	.loc 1 1515 3 view .LVU797
	.loc 1 1517 3 view .LVU798
	.loc 1 1517 3 view .LVU799
	.loc 1 1514 75 is_stmt 0 view .LVU800
	push	{r0, r1, r2, r4, r5, r6, r7, lr}
.LCFI44:
	.loc 1 1517 3 view .LVU801
	ldr	r5, .L162
	ldrb	r3, [r5]	@ zero_extendqisi2
	.loc 1 1514 75 view .LVU802
	mov	r6, r0
	mov	r7, r1
	.loc 1 1517 3 view .LVU803
	cbnz	r3, .L159
	.loc 1 1517 3 is_stmt 1 discriminator 1 view .LVU804
	bl	_DoInit
.LVL212:
.L159:
	.loc 1 1517 3 discriminator 3 view .LVU805
	.loc 1 1518 3 discriminator 3 view .LVU806
	.loc 1 1518 6 is_stmt 0 discriminator 3 view .LVU807
	ldr	r3, [r5, #20]
	cmp	r3, r6
	bls	.L161
.LBB16:
	.loc 1 1519 5 is_stmt 1 view .LVU808
	movs	r4, #0
	add	r0, sp, #7
	strb	r4, [sp, #7]
	.loc 1 1519 5 view .LVU809
	bl	app_util_critical_region_enter
.LVL213:
	.loc 1 1519 22 view .LVU810
	.loc 1 1520 5 view .LVU811
	.loc 1 1520 42 is_stmt 0 view .LVU812
	movs	r0, #24
	mla	r5, r0, r6, r5
	.loc 1 1521 5 view .LVU813
	ldrb	r0, [sp, #7]	@ zero_extendqisi2
	.loc 1 1520 42 view .LVU814
	str	r7, [r5, #72]
	.loc 1 1521 5 is_stmt 1 view .LVU815
	bl	app_util_critical_region_exit
.LVL214:
.LBE16:
	.loc 1 1521 24 view .LVU816
	.loc 1 1522 5 view .LVU817
	.loc 1 1522 7 is_stmt 0 view .LVU818
	mov	r0, r4
.LVL215:
.L158:
	.loc 1 1527 1 view .LVU819
	add	sp, sp, #12
.LCFI45:
	@ sp needed
	pop	{r4, r5, r6, r7, pc}
.LVL216:
.L161:
.LCFI46:
	.loc 1 1524 7 view .LVU820
	mov	r0, #-1
.LVL217:
	.loc 1 1526 3 is_stmt 1 view .LVU821
	.loc 1 1526 10 is_stmt 0 view .LVU822
	b	.L158
.L163:
	.align	2
.L162:
	.word	.LANCHOR0
.LFE219:
	.size	SEGGER_RTT_SetNameDownBuffer, .-SEGGER_RTT_SetNameDownBuffer
	.section	.text.SEGGER_RTT_SetFlagsUpBuffer,"ax",%progbits
	.align	1
	.global	SEGGER_RTT_SetFlagsUpBuffer
	.syntax unified
	.thumb
	.thumb_func
	.fpu fpv4-sp-d16
	.type	SEGGER_RTT_SetFlagsUpBuffer, %function
SEGGER_RTT_SetFlagsUpBuffer:
.LVL218:
.LFB220:
	.loc 1 1545 71 is_stmt 1 view -0
	@ args = 0, pretend = 0, frame = 8
	@ frame_needed = 0, uses_anonymous_args = 0
	.loc 1 1546 3 view .LVU824
	.loc 1 1548 3 view .LVU825
	.loc 1 1548 3 view .LVU826
	.loc 1 1545 71 is_stmt 0 view .LVU827
	push	{r0, r1, r2, r4, r5, r6, r7, lr}
.LCFI47:
	.loc 1 1548 3 view .LVU828
	ldr	r5, .L168
	ldrb	r3, [r5]	@ zero_extendqisi2
	.loc 1 1545 71 view .LVU829
	mov	r6, r0
	mov	r7, r1
	.loc 1 1548 3 view .LVU830
	cbnz	r3, .L165
	.loc 1 1548 3 is_stmt 1 discriminator 1 view .LVU831
	bl	_DoInit
.LVL219:
.L165:
	.loc 1 1548 3 discriminator 3 view .LVU832
	.loc 1 1549 3 discriminator 3 view .LVU833
	.loc 1 1549 6 is_stmt 0 discriminator 3 view .LVU834
	ldr	r3, [r5, #16]
	cmp	r3, r6
	bls	.L167
.LBB17:
	.loc 1 1550 5 is_stmt 1 view .LVU835
	movs	r4, #0
	add	r0, sp, #7
	strb	r4, [sp, #7]
	.loc 1 1550 5 view .LVU836
	bl	app_util_critical_region_enter
.LVL220:
	.loc 1 1550 22 view .LVU837
	.loc 1 1551 5 view .LVU838
	.loc 1 1551 40 is_stmt 0 view .LVU839
	movs	r0, #24
	mla	r5, r0, r6, r5
	.loc 1 1552 5 view .LVU840
	ldrb	r0, [sp, #7]	@ zero_extendqisi2
	.loc 1 1551 40 view .LVU841
	str	r7, [r5, #44]
	.loc 1 1552 5 is_stmt 1 view .LVU842
	bl	app_util_critical_region_exit
.LVL221:
.LBE17:
	.loc 1 1552 24 view .LVU843
	.loc 1 1553 5 view .LVU844
	.loc 1 1553 7 is_stmt 0 view .LVU845
	mov	r0, r4
.LVL222:
.L164:
	.loc 1 1558 1 view .LVU846
	add	sp, sp, #12
.LCFI48:
	@ sp needed
	pop	{r4, r5, r6, r7, pc}
.LVL223:
.L167:
.LCFI49:
	.loc 1 1555 7 view .LVU847
	mov	r0, #-1
.LVL224:
	.loc 1 1557 3 is_stmt 1 view .LVU848
	.loc 1 1557 10 is_stmt 0 view .LVU849
	b	.L164
.L169:
	.align	2
.L168:
	.word	.LANCHOR0
.LFE220:
	.size	SEGGER_RTT_SetFlagsUpBuffer, .-SEGGER_RTT_SetFlagsUpBuffer
	.section	.text.SEGGER_RTT_SetFlagsDownBuffer,"ax",%progbits
	.align	1
	.global	SEGGER_RTT_SetFlagsDownBuffer
	.syntax unified
	.thumb
	.thumb_func
	.fpu fpv4-sp-d16
	.type	SEGGER_RTT_SetFlagsDownBuffer, %function
SEGGER_RTT_SetFlagsDownBuffer:
.LVL225:
.LFB221:
	.loc 1 1576 73 is_stmt 1 view -0
	@ args = 0, pretend = 0, frame = 8
	@ frame_needed = 0, uses_anonymous_args = 0
	.loc 1 1577 3 view .LVU851
	.loc 1 1579 3 view .LVU852
	.loc 1 1579 3 view .LVU853
	.loc 1 1576 73 is_stmt 0 view .LVU854
	push	{r0, r1, r2, r4, r5, r6, r7, lr}
.LCFI50:
	.loc 1 1579 3 view .LVU855
	ldr	r5, .L174
	ldrb	r3, [r5]	@ zero_extendqisi2
	.loc 1 1576 73 view .LVU856
	mov	r6, r0
	mov	r7, r1
	.loc 1 1579 3 view .LVU857
	cbnz	r3, .L171
	.loc 1 1579 3 is_stmt 1 discriminator 1 view .LVU858
	bl	_DoInit
.LVL226:
.L171:
	.loc 1 1579 3 discriminator 3 view .LVU859
	.loc 1 1580 3 discriminator 3 view .LVU860
	.loc 1 1580 6 is_stmt 0 discriminator 3 view .LVU861
	ldr	r3, [r5, #20]
	cmp	r3, r6
	bls	.L173
.LBB18:
	.loc 1 1581 5 is_stmt 1 view .LVU862
	movs	r4, #0
	add	r0, sp, #7
	strb	r4, [sp, #7]
	.loc 1 1581 5 view .LVU863
	bl	app_util_critical_region_enter
.LVL227:
	.loc 1 1581 22 view .LVU864
	.loc 1 1582 5 view .LVU865
	.loc 1 1582 42 is_stmt 0 view .LVU866
	movs	r0, #24
	mla	r5, r0, r6, r5
	.loc 1 1583 5 view .LVU867
	ldrb	r0, [sp, #7]	@ zero_extendqisi2
	.loc 1 1582 42 view .LVU868
	str	r7, [r5, #92]
	.loc 1 1583 5 is_stmt 1 view .LVU869
	bl	app_util_critical_region_exit
.LVL228:
.LBE18:
	.loc 1 1583 24 view .LVU870
	.loc 1 1584 5 view .LVU871
	.loc 1 1584 7 is_stmt 0 view .LVU872
	mov	r0, r4
.LVL229:
.L170:
	.loc 1 1589 1 view .LVU873
	add	sp, sp, #12
.LCFI51:
	@ sp needed
	pop	{r4, r5, r6, r7, pc}
.LVL230:
.L173:
.LCFI52:
	.loc 1 1586 7 view .LVU874
	mov	r0, #-1
.LVL231:
	.loc 1 1588 3 is_stmt 1 view .LVU875
	.loc 1 1588 10 is_stmt 0 view .LVU876
	b	.L170
.L175:
	.align	2
.L174:
	.word	.LANCHOR0
.LFE221:
	.size	SEGGER_RTT_SetFlagsDownBuffer, .-SEGGER_RTT_SetFlagsDownBuffer
	.section	.text.SEGGER_RTT_Init,"ax",%progbits
	.align	1
	.global	SEGGER_RTT_Init
	.syntax unified
	.thumb
	.thumb_func
	.fpu fpv4-sp-d16
	.type	SEGGER_RTT_Init, %function
SEGGER_RTT_Init:
.LFB222:
	.loc 1 1600 29 is_stmt 1 view -0
	@ args = 0, pretend = 0, frame = 0
	@ frame_needed = 0, uses_anonymous_args = 0
	@ link register save eliminated.
	.loc 1 1601 3 view .LVU878
	b	_DoInit
.LVL232:
.LFE222:
	.size	SEGGER_RTT_Init, .-SEGGER_RTT_Init
	.section	.text.SEGGER_RTT_SetTerminal,"ax",%progbits
	.align	1
	.global	SEGGER_RTT_SetTerminal
	.syntax unified
	.thumb
	.thumb_func
	.fpu fpv4-sp-d16
	.type	SEGGER_RTT_SetTerminal, %function
SEGGER_RTT_SetTerminal:
.LVL233:
.LFB223:
	.loc 1 1618 46 view -0
	@ args = 0, pretend = 0, frame = 8
	@ frame_needed = 0, uses_anonymous_args = 0
	.loc 1 1619 3 view .LVU880
	.loc 1 1620 3 view .LVU881
	.loc 1 1621 3 view .LVU882
	.loc 1 1622 3 view .LVU883
	.loc 1 1624 3 view .LVU884
	.loc 1 1624 3 view .LVU885
	.loc 1 1618 46 is_stmt 0 view .LVU886
	push	{r0, r1, r4, r5, r6, lr}
.LCFI53:
	.loc 1 1624 3 view .LVU887
	ldr	r6, .L184
	ldrb	r3, [r6]	@ zero_extendqisi2
	.loc 1 1618 46 view .LVU888
	mov	r5, r0
	.loc 1 1624 3 view .LVU889
	cbnz	r3, .L178
	.loc 1 1624 3 is_stmt 1 discriminator 1 view .LVU890
	bl	_DoInit
.LVL234:
.L178:
	.loc 1 1624 3 discriminator 3 view .LVU891
	.loc 1 1626 3 discriminator 3 view .LVU892
	.loc 1 1627 3 discriminator 3 view .LVU893
	.loc 1 1627 9 is_stmt 0 discriminator 3 view .LVU894
	movs	r3, #255
	.loc 1 1628 6 discriminator 3 view .LVU895
	cmp	r5, #15
	.loc 1 1627 9 discriminator 3 view .LVU896
	strb	r3, [sp, #4]
	.loc 1 1628 3 is_stmt 1 discriminator 3 view .LVU897
	.loc 1 1628 6 is_stmt 0 discriminator 3 view .LVU898
	bhi	.L182
	.loc 1 1629 5 is_stmt 1 view .LVU899
	.loc 1 1629 25 is_stmt 0 view .LVU900
	ldr	r3, .L184+4
.LBB19:
	.loc 1 1631 5 view .LVU901
	movs	r4, #0
.LBE19:
	.loc 1 1629 11 view .LVU902
	ldrb	r3, [r3, r5]	@ zero_extendqisi2
	strb	r3, [sp, #5]
	.loc 1 1630 5 is_stmt 1 view .LVU903
.LVL235:
.LBB20:
	.loc 1 1631 5 view .LVU904
	add	r0, sp, #3
	strb	r4, [sp, #3]
	.loc 1 1631 5 view .LVU905
	bl	app_util_critical_region_enter
.LVL236:
	.loc 1 1631 22 view .LVU906
	.loc 1 1632 5 view .LVU907
	.loc 1 1632 23 is_stmt 0 view .LVU908
	ldr	r2, [r6, #44]
	and	r2, r2, #3
	.loc 1 1632 8 view .LVU909
	cmp	r2, #2
	bne	.L180
	.loc 1 1633 7 is_stmt 1 view .LVU910
	.loc 1 1633 23 is_stmt 0 view .LVU911
	ldr	r3, .L184+8
	.loc 1 1634 7 view .LVU912
	ldr	r0, .L184+12
	.loc 1 1633 23 view .LVU913
	strb	r5, [r3]
	.loc 1 1634 7 is_stmt 1 view .LVU914
	add	r1, sp, #4
	bl	_WriteBlocking
.LVL237:
.L181:
	.loc 1 1644 5 view .LVU915
	ldrb	r0, [sp, #3]	@ zero_extendqisi2
	bl	app_util_critical_region_exit
.LVL238:
.LBE20:
	.loc 1 1644 24 view .LVU916
.L177:
	.loc 1 1649 1 is_stmt 0 view .LVU917
	mov	r0, r4
	add	sp, sp, #8
.LCFI54:
	@ sp needed
	pop	{r4, r5, r6, pc}
.LVL239:
.L180:
.LCFI55:
.LBB21:
	.loc 1 1636 7 is_stmt 1 view .LVU918
	.loc 1 1636 15 is_stmt 0 view .LVU919
	ldr	r0, .L184+12
	bl	_GetAvailWriteSpace
.LVL240:
	.loc 1 1637 7 is_stmt 1 view .LVU920
	.loc 1 1637 10 is_stmt 0 view .LVU921
	cmp	r0, #1
	bls	.L183
	.loc 1 1638 9 is_stmt 1 view .LVU922
	.loc 1 1638 25 is_stmt 0 view .LVU923
	ldr	r3, .L184+8
	.loc 1 1639 9 view .LVU924
	ldr	r0, .L184+12
.LVL241:
	.loc 1 1638 25 view .LVU925
	strb	r5, [r3]
	.loc 1 1639 9 is_stmt 1 view .LVU926
	movs	r2, #2
	add	r1, sp, #4
	bl	_WriteNoCheck
.LVL242:
	b	.L181
.LVL243:
.L183:
	.loc 1 1641 11 is_stmt 0 view .LVU927
	mov	r4, #-1
	b	.L181
.LVL244:
.L182:
	.loc 1 1641 11 view .LVU928
.LBE21:
	.loc 1 1646 7 view .LVU929
	mov	r4, #-1
.LVL245:
	.loc 1 1648 3 is_stmt 1 view .LVU930
	.loc 1 1648 10 is_stmt 0 view .LVU931
	b	.L177
.L185:
	.align	2
.L184:
	.word	.LANCHOR0
	.word	.LANCHOR3
	.word	.LANCHOR4
	.word	.LANCHOR0+24
.LFE223:
	.size	SEGGER_RTT_SetTerminal, .-SEGGER_RTT_SetTerminal
	.section	.text.SEGGER_RTT_TerminalOut,"ax",%progbits
	.align	1
	.global	SEGGER_RTT_TerminalOut
	.syntax unified
	.thumb
	.thumb_func
	.fpu fpv4-sp-d16
	.type	SEGGER_RTT_TerminalOut, %function
SEGGER_RTT_TerminalOut:
.LVL246:
.LFB224:
	.loc 1 1668 61 is_stmt 1 view -0
	@ args = 0, pretend = 0, frame = 8
	@ frame_needed = 0, uses_anonymous_args = 0
	.loc 1 1669 3 view .LVU933
	.loc 1 1670 3 view .LVU934
	.loc 1 1671 3 view .LVU935
	.loc 1 1672 3 view .LVU936
	.loc 1 1674 3 view .LVU937
	.loc 1 1674 3 view .LVU938
	.loc 1 1668 61 is_stmt 0 view .LVU939
	push	{r0, r1, r4, r5, r6, r7, r8, lr}
.LCFI56:
	.loc 1 1674 3 view .LVU940
	ldr	r4, .L197
	ldrb	r3, [r4]	@ zero_extendqisi2
	.loc 1 1668 61 view .LVU941
	mov	r8, r0
	mov	r6, r1
	.loc 1 1674 3 view .LVU942
	cbnz	r3, .L187
	.loc 1 1674 3 is_stmt 1 discriminator 1 view .LVU943
	bl	_DoInit
.LVL247:
.L187:
	.loc 1 1674 3 discriminator 3 view .LVU944
	.loc 1 1678 3 discriminator 3 view .LVU945
	.loc 1 1678 6 is_stmt 0 discriminator 3 view .LVU946
	cmp	r8, #15
	bhi	.L192
	.loc 1 1682 5 is_stmt 1 view .LVU947
.LVL248:
	.loc 1 1687 5 view .LVU948
	.loc 1 1687 15 is_stmt 0 view .LVU949
	mov	r0, r6
	bl	strlen
.LVL249:
.LBB22:
	.loc 1 1691 5 view .LVU950
	movs	r3, #0
.LBE22:
	.loc 1 1687 15 view .LVU951
	mov	r7, r0
.LVL250:
.LBB23:
	.loc 1 1691 5 is_stmt 1 view .LVU952
	add	r0, sp, #7
.LVL251:
	.loc 1 1691 5 is_stmt 0 view .LVU953
	strb	r3, [sp, #7]
	.loc 1 1691 5 is_stmt 1 view .LVU954
	bl	app_util_critical_region_enter
.LVL252:
	.loc 1 1691 22 view .LVU955
	.loc 1 1692 5 view .LVU956
	.loc 1 1692 13 is_stmt 0 view .LVU957
	ldr	r0, .L197+4
	bl	_GetAvailWriteSpace
.LVL253:
	.loc 1 1693 26 view .LVU958
	ldr	r4, [r4, #44]
	and	r4, r4, #3
	.loc 1 1693 5 view .LVU959
	cmp	r4, #1
	.loc 1 1692 13 view .LVU960
	mov	r5, r0
.LVL254:
	.loc 1 1693 5 is_stmt 1 view .LVU961
	beq	.L189
	cmp	r4, #2
	beq	.L190
	cbnz	r4, .L195
	.loc 1 1699 7 view .LVU962
	.loc 1 1699 28 is_stmt 0 view .LVU963
	adds	r3, r7, #4
	.loc 1 1699 10 view .LVU964
	cmp	r3, r0
	bhi	.L191
.L190:
	.loc 1 1725 7 is_stmt 1 view .LVU965
	mov	r0, r8
.LVL255:
	.loc 1 1725 7 is_stmt 0 view .LVU966
	bl	_PostTerminalSwitch.constprop.0
.LVL256:
	.loc 1 1726 7 is_stmt 1 view .LVU967
	.loc 1 1726 21 is_stmt 0 view .LVU968
	mov	r2, r7
	b	.L196
.LVL257:
.L189:
	.loc 1 1713 7 is_stmt 1 view .LVU969
	.loc 1 1713 10 is_stmt 0 view .LVU970
	cmp	r0, #3
	bls	.L195
	.loc 1 1716 9 is_stmt 1 view .LVU971
	mov	r0, r8
.LVL258:
	.loc 1 1716 9 is_stmt 0 view .LVU972
	bl	_PostTerminalSwitch.constprop.0
.LVL259:
	.loc 1 1717 9 is_stmt 1 view .LVU973
	.loc 1 1717 66 is_stmt 0 view .LVU974
	subs	r2, r5, #4
	.loc 1 1717 23 view .LVU975
	cmp	r2, r7
	it	cs
	movcs	r2, r7
.L196:
	.loc 1 1717 23 view .LVU976
	ldr	r0, .L197+4
	mov	r1, r6
	bl	_WriteBlocking
.LVL260:
	.loc 1 1718 9 view .LVU977
	ldr	r3, .L197+8
	.loc 1 1717 23 view .LVU978
	mov	r4, r0
.LVL261:
	.loc 1 1718 9 is_stmt 1 view .LVU979
	ldrb	r0, [r3]	@ zero_extendqisi2
.LVL262:
	.loc 1 1718 9 is_stmt 0 view .LVU980
	bl	_PostTerminalSwitch.constprop.0
.LVL263:
.L191:
	.loc 1 1736 5 is_stmt 1 discriminator 1 view .LVU981
	ldrb	r0, [sp, #7]	@ zero_extendqisi2
	bl	app_util_critical_region_exit
.LVL264:
.LBE23:
	.loc 1 1736 24 discriminator 1 view .LVU982
.L186:
	.loc 1 1741 1 is_stmt 0 view .LVU983
	mov	r0, r4
	add	sp, sp, #8
.LCFI57:
	@ sp needed
	pop	{r4, r5, r6, r7, r8, pc}
.LVL265:
.L195:
.LCFI58:
.LBB24:
	.loc 1 1714 16 view .LVU984
	mov	r4, #-1
	b	.L191
.LVL266:
.L192:
	.loc 1 1714 16 view .LVU985
.LBE24:
	.loc 1 1738 12 view .LVU986
	mov	r4, #-1
.LVL267:
	.loc 1 1740 3 is_stmt 1 view .LVU987
	.loc 1 1740 10 is_stmt 0 view .LVU988
	b	.L186
.L198:
	.align	2
.L197:
	.word	.LANCHOR0
	.word	.LANCHOR0+24
	.word	.LANCHOR4
.LFE224:
	.size	SEGGER_RTT_TerminalOut, .-SEGGER_RTT_TerminalOut
	.global	_SEGGER_RTT
	.section	.bss._ActiveTerminal,"aw",%nobits
	.set	.LANCHOR4,. + 0
	.type	_ActiveTerminal, %object
	.size	_ActiveTerminal, 1
_ActiveTerminal:
	.space	1
	.section	.bss._SEGGER_RTT,"aw",%nobits
	.align	2
	.set	.LANCHOR0,. + 0
	.type	_SEGGER_RTT, %object
	.size	_SEGGER_RTT, 120
_SEGGER_RTT:
	.space	120
	.section	.bss._acDownBuffer,"aw",%nobits
	.set	.LANCHOR2,. + 0
	.type	_acDownBuffer, %object
	.size	_acDownBuffer, 16
_acDownBuffer:
	.space	16
	.section	.bss._acUpBuffer,"aw",%nobits
	.set	.LANCHOR1,. + 0
	.type	_acUpBuffer, %object
	.size	_acUpBuffer, 512
_acUpBuffer:
	.space	512
	.section	.rodata._aTerminalId,"a"
	.set	.LANCHOR3,. + 0
	.type	_aTerminalId, %object
	.size	_aTerminalId, 16
_aTerminalId:
	.ascii	"0123456789ABCDEF"
	.section	.debug_frame,"",%progbits
.Lframe0:
	.4byte	.LECIE0-.LSCIE0
.LSCIE0:
	.4byte	0xffffffff
	.byte	0x3
	.ascii	"\000"
	.uleb128 0x1
	.sleb128 -4
	.uleb128 0xe
	.byte	0xc
	.uleb128 0xd
	.uleb128 0
	.align	2
.LECIE0:
.LSFDE0:
	.4byte	.LEFDE0-.LASFDE0
.LASFDE0:
	.4byte	.Lframe0
	.4byte	.LFB199
	.4byte	.LFE199-.LFB199
	.align	2
.LEFDE0:
.LSFDE2:
	.4byte	.LEFDE2-.LASFDE2
.LASFDE2:
	.4byte	.Lframe0
	.4byte	.LFB197
	.4byte	.LFE197-.LFB197
	.byte	0x4
	.4byte	.LCFI0-.LFB197
	.byte	0xe
	.uleb128 0x20
	.byte	0x83
	.uleb128 0x8
	.byte	0x84
	.uleb128 0x7
	.byte	0x85
	.uleb128 0x6
	.byte	0x86
	.uleb128 0x5
	.byte	0x87
	.uleb128 0x4
	.byte	0x88
	.uleb128 0x3
	.byte	0x89
	.uleb128 0x2
	.byte	0x8e
	.uleb128 0x1
	.align	2
.LEFDE2:
.LSFDE4:
	.4byte	.LEFDE4-.LASFDE4
.LASFDE4:
	.4byte	.Lframe0
	.4byte	.LFB196
	.4byte	.LFE196-.LFB196
	.byte	0x4
	.4byte	.LCFI1-.LFB196
	.byte	0xe
	.uleb128 0x20
	.byte	0x83
	.uleb128 0x8
	.byte	0x84
	.uleb128 0x7
	.byte	0x85
	.uleb128 0x6
	.byte	0x86
	.uleb128 0x5
	.byte	0x87
	.uleb128 0x4
	.byte	0x88
	.uleb128 0x3
	.byte	0x89
	.uleb128 0x2
	.byte	0x8e
	.uleb128 0x1
	.align	2
.LEFDE4:
.LSFDE6:
	.4byte	.LEFDE6-.LASFDE6
.LASFDE6:
	.4byte	.Lframe0
	.4byte	.LFB195
	.4byte	.LFE195-.LFB195
	.byte	0x4
	.4byte	.LCFI2-.LFB195
	.byte	0xe
	.uleb128 0x8
	.byte	0x84
	.uleb128 0x2
	.byte	0x8e
	.uleb128 0x1
	.align	2
.LEFDE6:
.LSFDE8:
	.4byte	.LEFDE8-.LASFDE8
.LASFDE8:
	.4byte	.Lframe0
	.4byte	.LFB225
	.4byte	.LFE225-.LFB225
	.byte	0x4
	.4byte	.LCFI3-.LFB225
	.byte	0xe
	.uleb128 0x10
	.byte	0x8e
	.uleb128 0x1
	.byte	0x4
	.4byte	.LCFI4-.LCFI3
	.byte	0xe
	.uleb128 0x4
	.align	2
.LEFDE8:
.LSFDE10:
	.4byte	.LEFDE10-.LASFDE10
.LASFDE10:
	.4byte	.Lframe0
	.4byte	.LFB200
	.4byte	.LFE200-.LFB200
	.byte	0x4
	.4byte	.LCFI5-.LFB200
	.byte	0xe
	.uleb128 0x28
	.byte	0x83
	.uleb128 0xa
	.byte	0x84
	.uleb128 0x9
	.byte	0x85
	.uleb128 0x8
	.byte	0x86
	.uleb128 0x7
	.byte	0x87
	.uleb128 0x6
	.byte	0x88
	.uleb128 0x5
	.byte	0x89
	.uleb128 0x4
	.byte	0x8a
	.uleb128 0x3
	.byte	0x8b
	.uleb128 0x2
	.byte	0x8e
	.uleb128 0x1
	.align	2
.LEFDE10:
.LSFDE12:
	.4byte	.LEFDE12-.LASFDE12
.LASFDE12:
	.4byte	.Lframe0
	.4byte	.LFB201
	.4byte	.LFE201-.LFB201
	.byte	0x4
	.4byte	.LCFI6-.LFB201
	.byte	0xe
	.uleb128 0x18
	.byte	0x84
	.uleb128 0x2
	.byte	0x8e
	.uleb128 0x1
	.byte	0x4
	.4byte	.LCFI7-.LCFI6
	.byte	0xe
	.uleb128 0x8
	.align	2
.LEFDE12:
.LSFDE14:
	.4byte	.LEFDE14-.LASFDE14
.LASFDE14:
	.4byte	.Lframe0
	.4byte	.LFB202
	.4byte	.LFE202-.LFB202
	.byte	0x4
	.4byte	.LCFI8-.LFB202
	.byte	0xe
	.uleb128 0x30
	.byte	0x84
	.uleb128 0x9
	.byte	0x85
	.uleb128 0x8
	.byte	0x86
	.uleb128 0x7
	.byte	0x87
	.uleb128 0x6
	.byte	0x88
	.uleb128 0x5
	.byte	0x89
	.uleb128 0x4
	.byte	0x8a
	.uleb128 0x3
	.byte	0x8b
	.uleb128 0x2
	.byte	0x8e
	.uleb128 0x1
	.byte	0x4
	.4byte	.LCFI9-.LCFI8
	.byte	0xa
	.byte	0xe
	.uleb128 0x24
	.byte	0x4
	.4byte	.LCFI10-.LCFI9
	.byte	0xb
	.align	2
.LEFDE14:
.LSFDE16:
	.4byte	.LEFDE16-.LASFDE16
.LASFDE16:
	.4byte	.Lframe0
	.4byte	.LFB203
	.4byte	.LFE203-.LFB203
	.byte	0x4
	.4byte	.LCFI11-.LFB203
	.byte	0xe
	.uleb128 0x20
	.byte	0x84
	.uleb128 0x8
	.byte	0x85
	.uleb128 0x7
	.byte	0x86
	.uleb128 0x6
	.byte	0x87
	.uleb128 0x5
	.byte	0x88
	.uleb128 0x4
	.byte	0x89
	.uleb128 0x3
	.byte	0x8a
	.uleb128 0x2
	.byte	0x8e
	.uleb128 0x1
	.align	2
.LEFDE16:
.LSFDE18:
	.4byte	.LEFDE18-.LASFDE18
.LASFDE18:
	.4byte	.Lframe0
	.4byte	.LFB204
	.4byte	.LFE204-.LFB204
	.byte	0x4
	.4byte	.LCFI12-.LFB204
	.byte	0xe
	.uleb128 0x10
	.byte	0x84
	.uleb128 0x4
	.byte	0x85
	.uleb128 0x3
	.byte	0x86
	.uleb128 0x2
	.byte	0x8e
	.uleb128 0x1
	.byte	0x4
	.4byte	.LCFI13-.LCFI12
	.byte	0xa
	.byte	0xce
	.byte	0xc6
	.byte	0xc5
	.byte	0xc4
	.byte	0xe
	.uleb128 0
	.byte	0x4
	.4byte	.LCFI14-.LCFI13
	.byte	0xb
	.align	2
.LEFDE18:
.LSFDE20:
	.4byte	.LEFDE20-.LASFDE20
.LASFDE20:
	.4byte	.Lframe0
	.4byte	.LFB205
	.4byte	.LFE205-.LFB205
	.byte	0x4
	.4byte	.LCFI15-.LFB205
	.byte	0xe
	.uleb128 0x18
	.byte	0x84
	.uleb128 0x4
	.byte	0x85
	.uleb128 0x3
	.byte	0x86
	.uleb128 0x2
	.byte	0x8e
	.uleb128 0x1
	.byte	0x4
	.4byte	.LCFI16-.LCFI15
	.byte	0xe
	.uleb128 0x10
	.align	2
.LEFDE20:
.LSFDE22:
	.4byte	.LEFDE22-.LASFDE22
.LASFDE22:
	.4byte	.Lframe0
	.4byte	.LFB206
	.4byte	.LFE206-.LFB206
	.byte	0x4
	.4byte	.LCFI17-.LFB206
	.byte	0xe
	.uleb128 0x10
	.byte	0x84
	.uleb128 0x2
	.byte	0x8e
	.uleb128 0x1
	.byte	0x4
	.4byte	.LCFI18-.LCFI17
	.byte	0xe
	.uleb128 0x8
	.byte	0x4
	.4byte	.LCFI19-.LCFI18
	.byte	0xce
	.byte	0xc4
	.byte	0xe
	.uleb128 0
	.align	2
.LEFDE22:
.LSFDE24:
	.4byte	.LEFDE24-.LASFDE24
.LASFDE24:
	.4byte	.Lframe0
	.4byte	.LFB207
	.4byte	.LFE207-.LFB207
	.byte	0x4
	.4byte	.LCFI20-.LFB207
	.byte	0xe
	.uleb128 0x14
	.byte	0x84
	.uleb128 0x5
	.byte	0x85
	.uleb128 0x4
	.byte	0x86
	.uleb128 0x3
	.byte	0x87
	.uleb128 0x2
	.byte	0x8e
	.uleb128 0x1
	.align	2
.LEFDE24:
.LSFDE26:
	.4byte	.LEFDE26-.LASFDE26
.LASFDE26:
	.4byte	.Lframe0
	.4byte	.LFB208
	.4byte	.LFE208-.LFB208
	.byte	0x4
	.4byte	.LCFI21-.LFB208
	.byte	0xe
	.uleb128 0x20
	.byte	0x84
	.uleb128 0x6
	.byte	0x85
	.uleb128 0x5
	.byte	0x86
	.uleb128 0x4
	.byte	0x87
	.uleb128 0x3
	.byte	0x88
	.uleb128 0x2
	.byte	0x8e
	.uleb128 0x1
	.byte	0x4
	.4byte	.LCFI22-.LCFI21
	.byte	0xe
	.uleb128 0x18
	.align	2
.LEFDE26:
.LSFDE28:
	.4byte	.LEFDE28-.LASFDE28
.LASFDE28:
	.4byte	.Lframe0
	.4byte	.LFB209
	.4byte	.LFE209-.LFB209
	.byte	0x4
	.4byte	.LCFI23-.LFB209
	.byte	0xe
	.uleb128 0x20
	.byte	0x84
	.uleb128 0x5
	.byte	0x85
	.uleb128 0x4
	.byte	0x86
	.uleb128 0x3
	.byte	0x87
	.uleb128 0x2
	.byte	0x8e
	.uleb128 0x1
	.byte	0x4
	.4byte	.LCFI24-.LCFI23
	.byte	0xe
	.uleb128 0x14
	.align	2
.LEFDE28:
.LSFDE30:
	.4byte	.LEFDE30-.LASFDE30
.LASFDE30:
	.4byte	.Lframe0
	.4byte	.LFB210
	.4byte	.LFE210-.LFB210
	.byte	0x4
	.4byte	.LCFI25-.LFB210
	.byte	0xe
	.uleb128 0x10
	.byte	0x8e
	.uleb128 0x1
	.byte	0x4
	.4byte	.LCFI26-.LCFI25
	.byte	0xe
	.uleb128 0x4
	.align	2
.LEFDE30:
.LSFDE32:
	.4byte	.LEFDE32-.LASFDE32
.LASFDE32:
	.4byte	.Lframe0
	.4byte	.LFB211
	.4byte	.LFE211-.LFB211
	.byte	0x4
	.4byte	.LCFI27-.LFB211
	.byte	0xe
	.uleb128 0x8
	.byte	0x83
	.uleb128 0x2
	.byte	0x8e
	.uleb128 0x1
	.align	2
.LEFDE32:
.LSFDE34:
	.4byte	.LEFDE34-.LASFDE34
.LASFDE34:
	.4byte	.Lframe0
	.4byte	.LFB212
	.4byte	.LFE212-.LFB212
	.byte	0x4
	.4byte	.LCFI28-.LFB212
	.byte	0xe
	.uleb128 0x8
	.byte	0x84
	.uleb128 0x2
	.byte	0x8e
	.uleb128 0x1
	.align	2
.LEFDE34:
.LSFDE36:
	.4byte	.LEFDE36-.LASFDE36
.LASFDE36:
	.4byte	.Lframe0
	.4byte	.LFB213
	.4byte	.LFE213-.LFB213
	.align	2
.LEFDE36:
.LSFDE38:
	.4byte	.LEFDE38-.LASFDE38
.LASFDE38:
	.4byte	.Lframe0
	.4byte	.LFB214
	.4byte	.LFE214-.LFB214
	.byte	0x4
	.4byte	.LCFI29-.LFB214
	.byte	0xe
	.uleb128 0x28
	.byte	0x84
	.uleb128 0x7
	.byte	0x85
	.uleb128 0x6
	.byte	0x86
	.uleb128 0x5
	.byte	0x87
	.uleb128 0x4
	.byte	0x88
	.uleb128 0x3
	.byte	0x89
	.uleb128 0x2
	.byte	0x8e
	.uleb128 0x1
	.byte	0x4
	.4byte	.LCFI30-.LCFI29
	.byte	0xa
	.byte	0xe
	.uleb128 0x1c
	.byte	0x4
	.4byte	.LCFI31-.LCFI30
	.byte	0xb
	.align	2
.LEFDE38:
.LSFDE40:
	.4byte	.LEFDE40-.LASFDE40
.LASFDE40:
	.4byte	.Lframe0
	.4byte	.LFB215
	.4byte	.LFE215-.LFB215
	.byte	0x4
	.4byte	.LCFI32-.LFB215
	.byte	0xe
	.uleb128 0x28
	.byte	0x84
	.uleb128 0x7
	.byte	0x85
	.uleb128 0x6
	.byte	0x86
	.uleb128 0x5
	.byte	0x87
	.uleb128 0x4
	.byte	0x88
	.uleb128 0x3
	.byte	0x89
	.uleb128 0x2
	.byte	0x8e
	.uleb128 0x1
	.byte	0x4
	.4byte	.LCFI33-.LCFI32
	.byte	0xa
	.byte	0xe
	.uleb128 0x1c
	.byte	0x4
	.4byte	.LCFI34-.LCFI33
	.byte	0xb
	.align	2
.LEFDE40:
.LSFDE42:
	.4byte	.LEFDE42-.LASFDE42
.LASFDE42:
	.4byte	.Lframe0
	.4byte	.LFB216
	.4byte	.LFE216-.LFB216
	.byte	0x4
	.4byte	.LCFI35-.LFB216
	.byte	0xe
	.uleb128 0x28
	.byte	0x84
	.uleb128 0x7
	.byte	0x85
	.uleb128 0x6
	.byte	0x86
	.uleb128 0x5
	.byte	0x87
	.uleb128 0x4
	.byte	0x88
	.uleb128 0x3
	.byte	0x89
	.uleb128 0x2
	.byte	0x8e
	.uleb128 0x1
	.byte	0x4
	.4byte	.LCFI36-.LCFI35
	.byte	0xa
	.byte	0xe
	.uleb128 0x1c
	.byte	0x4
	.4byte	.LCFI37-.LCFI36
	.byte	0xb
	.align	2
.LEFDE42:
.LSFDE44:
	.4byte	.LEFDE44-.LASFDE44
.LASFDE44:
	.4byte	.Lframe0
	.4byte	.LFB217
	.4byte	.LFE217-.LFB217
	.byte	0x4
	.4byte	.LCFI38-.LFB217
	.byte	0xe
	.uleb128 0x28
	.byte	0x84
	.uleb128 0x8
	.byte	0x85
	.uleb128 0x7
	.byte	0x86
	.uleb128 0x6
	.byte	0x87
	.uleb128 0x5
	.byte	0x88
	.uleb128 0x4
	.byte	0x89
	.uleb128 0x3
	.byte	0x8a
	.uleb128 0x2
	.byte	0x8e
	.uleb128 0x1
	.byte	0x4
	.4byte	.LCFI39-.LCFI38
	.byte	0xa
	.byte	0xe
	.uleb128 0x20
	.byte	0x4
	.4byte	.LCFI40-.LCFI39
	.byte	0xb
	.align	2
.LEFDE44:
.LSFDE46:
	.4byte	.LEFDE46-.LASFDE46
.LASFDE46:
	.4byte	.Lframe0
	.4byte	.LFB218
	.4byte	.LFE218-.LFB218
	.byte	0x4
	.4byte	.LCFI41-.LFB218
	.byte	0xe
	.uleb128 0x20
	.byte	0x84
	.uleb128 0x5
	.byte	0x85
	.uleb128 0x4
	.byte	0x86
	.uleb128 0x3
	.byte	0x87
	.uleb128 0x2
	.byte	0x8e
	.uleb128 0x1
	.byte	0x4
	.4byte	.LCFI42-.LCFI41
	.byte	0xa
	.byte	0xe
	.uleb128 0x14
	.byte	0x4
	.4byte	.LCFI43-.LCFI42
	.byte	0xb
	.align	2
.LEFDE46:
.LSFDE48:
	.4byte	.LEFDE48-.LASFDE48
.LASFDE48:
	.4byte	.Lframe0
	.4byte	.LFB219
	.4byte	.LFE219-.LFB219
	.byte	0x4
	.4byte	.LCFI44-.LFB219
	.byte	0xe
	.uleb128 0x20
	.byte	0x84
	.uleb128 0x5
	.byte	0x85
	.uleb128 0x4
	.byte	0x86
	.uleb128 0x3
	.byte	0x87
	.uleb128 0x2
	.byte	0x8e
	.uleb128 0x1
	.byte	0x4
	.4byte	.LCFI45-.LCFI44
	.byte	0xa
	.byte	0xe
	.uleb128 0x14
	.byte	0x4
	.4byte	.LCFI46-.LCFI45
	.byte	0xb
	.align	2
.LEFDE48:
.LSFDE50:
	.4byte	.LEFDE50-.LASFDE50
.LASFDE50:
	.4byte	.Lframe0
	.4byte	.LFB220
	.4byte	.LFE220-.LFB220
	.byte	0x4
	.4byte	.LCFI47-.LFB220
	.byte	0xe
	.uleb128 0x20
	.byte	0x84
	.uleb128 0x5
	.byte	0x85
	.uleb128 0x4
	.byte	0x86
	.uleb128 0x3
	.byte	0x87
	.uleb128 0x2
	.byte	0x8e
	.uleb128 0x1
	.byte	0x4
	.4byte	.LCFI48-.LCFI47
	.byte	0xa
	.byte	0xe
	.uleb128 0x14
	.byte	0x4
	.4byte	.LCFI49-.LCFI48
	.byte	0xb
	.align	2
.LEFDE50:
.LSFDE52:
	.4byte	.LEFDE52-.LASFDE52
.LASFDE52:
	.4byte	.Lframe0
	.4byte	.LFB221
	.4byte	.LFE221-.LFB221
	.byte	0x4
	.4byte	.LCFI50-.LFB221
	.byte	0xe
	.uleb128 0x20
	.byte	0x84
	.uleb128 0x5
	.byte	0x85
	.uleb128 0x4
	.byte	0x86
	.uleb128 0x3
	.byte	0x87
	.uleb128 0x2
	.byte	0x8e
	.uleb128 0x1
	.byte	0x4
	.4byte	.LCFI51-.LCFI50
	.byte	0xa
	.byte	0xe
	.uleb128 0x14
	.byte	0x4
	.4byte	.LCFI52-.LCFI51
	.byte	0xb
	.align	2
.LEFDE52:
.LSFDE54:
	.4byte	.LEFDE54-.LASFDE54
.LASFDE54:
	.4byte	.Lframe0
	.4byte	.LFB222
	.4byte	.LFE222-.LFB222
	.align	2
.LEFDE54:
.LSFDE56:
	.4byte	.LEFDE56-.LASFDE56
.LASFDE56:
	.4byte	.Lframe0
	.4byte	.LFB223
	.4byte	.LFE223-.LFB223
	.byte	0x4
	.4byte	.LCFI53-.LFB223
	.byte	0xe
	.uleb128 0x18
	.byte	0x84
	.uleb128 0x4
	.byte	0x85
	.uleb128 0x3
	.byte	0x86
	.uleb128 0x2
	.byte	0x8e
	.uleb128 0x1
	.byte	0x4
	.4byte	.LCFI54-.LCFI53
	.byte	0xa
	.byte	0xe
	.uleb128 0x10
	.byte	0x4
	.4byte	.LCFI55-.LCFI54
	.byte	0xb
	.align	2
.LEFDE56:
.LSFDE58:
	.4byte	.LEFDE58-.LASFDE58
.LASFDE58:
	.4byte	.Lframe0
	.4byte	.LFB224
	.4byte	.LFE224-.LFB224
	.byte	0x4
	.4byte	.LCFI56-.LFB224
	.byte	0xe
	.uleb128 0x20
	.byte	0x84
	.uleb128 0x6
	.byte	0x85
	.uleb128 0x5
	.byte	0x86
	.uleb128 0x4
	.byte	0x87
	.uleb128 0x3
	.byte	0x88
	.uleb128 0x2
	.byte	0x8e
	.uleb128 0x1
	.byte	0x4
	.4byte	.LCFI57-.LCFI56
	.byte	0xa
	.byte	0xe
	.uleb128 0x18
	.byte	0x4
	.4byte	.LCFI58-.LCFI57
	.byte	0xb
	.align	2
.LEFDE58:
	.text
.Letext0:
	.file 2 "E:\\prj\\kb\\nRF5_SDK_17.0.2_d674dde\\external\\segger_rtt\\SEGGER_RTT.h"
	.file 3 "D:/armEmbStudio/include/stdint.h"
	.file 4 "../../../../../../components/libraries/util/app_util_platform.h"
	.file 5 "D:/armEmbStudio/include/string.h"
	.file 6 "<built-in>"